; Listing generated by Microsoft (R) Optimizing Compiler Version 19.34.31937.0 

	TITLE	D:\User\Desktop\Everythin' for BSTU\Narkevich\All laboratory works\2-ой семестр\решения лбр\LBR_03\LBR_01\Debug\Incorrect_Data_yes_or_no.obj
	.686P
	.XMM
	include listing.inc
	.model	flat

INCLUDELIB MSVCRTD
INCLUDELIB OLDNAMES

msvcjmc	SEGMENT
__CD417A16_concurrencysal@h DB 01H
__18C11F8D_sal@h DB 01H
__BD42D05E_vadefs@h DB 01H
__2DC9DF70_vcruntime@h DB 01H
__C9149A6D_xkeycheck@h DB 01H
__94F3B4AE_yvals_core@h DB 01H
__7B399007_limits@h DB 01H
__1AB9F2C2_climits DB 01H
__04C75F1C_corecrt@h DB 01H
__E81B5085_vcruntime_new@h DB 01H
__130137D5_vcruntime_new_debug@h DB 01H
__8CF369C8_crtdbg@h DB 01H
__95C621C9_crtdefs@h DB 01H
__FEED0ABF_use_ansi@h DB 01H
__2816668F_yvals@h DB 01H
__92857972_corecrt_math@h DB 01H
__A29DED85_math@h DB 01H
__494656A0_corecrt_malloc@h DB 01H
__0C5B3DCC_stddef@h DB 01H
__F1F53BCE_corecrt_search@h DB 01H
__DD5AA43A_corecrt_wstdlib@h DB 01H
__71F46169_stdlib@h DB 01H
__9E56D030_cstdlib DB 01H
__05E338F6_xtr1common DB 01H
__99FA516B_intrin0@inl@h DB 01H
__8CEB98C2_intrin0@h DB 01H
__7A7B113A_cmath DB 01H
__C44F8F6B_corecrt_stdio_config@h DB 01H
__A7F89B2B_corecrt_wstdio@h DB 01H
__B5C48800_stdio@h DB 01H
__A651C215_cstdio DB 01H
__15E49872_errno@h DB 01H
__6BB4896E_vcruntime_string@h DB 01H
__184F7456_corecrt_memcpy_s@h DB 01H
__82377222_corecrt_memory@h DB 01H
__5B29309E_corecrt_wstring@h DB 01H
__F787F5CD_string@h DB 01H
__D2C478D0_cstring DB 01H
__E387ED1C_corecrt_wconio@h DB 01H
__78D0C915_corecrt_wctype@h DB 01H
__02A4DD57_corecrt_wdirect@h DB 01H
__A056EFF3_corecrt_share@h DB 01H
__91FC0EDF_corecrt_wio@h DB 01H
__6619318A_corecrt_wprocess@h DB 01H
__18070508_corecrt_wtime@h DB 01H
__3D2AFB26_types@h DB 01H
__72103B05_stat@h DB 01H
__4BE26BFD_wchar@h DB 01H
__3CDA1446_cwchar DB 01H
__3B9D0A9D_cstddef DB 01H
__D7870C25_initializer_list DB 01H
__5E44C2A9_xstddef DB 01H
__7F1A9170_iosfwd DB 01H
__C54FBE38_stdint@h DB 01H
__2308314D_cstdint DB 01H
__87BD5CA6_type_traits DB 01H
__A95B55BB_utility DB 01H
__EE76B579___msvc_iter_core@hpp DB 01H
__A997C6C5_xutility DB 01H
__B83B7185_iterator DB 01H
__83BF90D8_share@h DB 01H
__9D384591___msvc_system_error_abi@hpp DB 01H
__3B70B6EE_cerrno DB 01H
__E5D9469F_malloc@h DB 01H
__C78E68C1_corecrt_terminate@h DB 01H
__510B0051_eh@h DB 01H
__1BEF3287_vcruntime_exception@h DB 01H
__5D994F5F_exception DB 01H
__CDB0EEF0_float@h DB 01H
__D5150992_cfloat DB 01H
__B83F831D_isa_availability@h DB 01H
__B3F344F6_limits DB 01H
__7E4C13A5_new DB 01H
__5795C389_xatomic@h DB 01H
__C3CE3678_xmemory DB 01H
__B71DB0E4_xstring DB 01H
__D4D77502_stdexcept DB 01H
__D76B6AFE_xcall_once@h DB 01H
__80837380_xerrc@h DB 01H
__93FD7E51_time@h DB 01H
__BCC88D32_ctime DB 01H
__1F532584_xtimec@h DB 01H
__9FA33D0C_xthreads@h DB 01H
__D8C61834_atomic DB 01H
__683678DE_system_error DB 01H
__FA9853E6_vcruntime_typeinfo@h DB 01H
__D94835DC_typeinfo DB 01H
__0F5D4878_memory DB 01H
__23181F77_xfacet DB 01H
__274043E2___msvc_xlocinfo_types@hpp DB 01H
__6AECDA3E_ctype@h DB 01H
__A99A25B2_cctype DB 01H
__66B29864_locale@h DB 01H
__0DFA0CE1_clocale DB 01H
__C6C1D614_xlocinfo DB 01H
__6823C4D5_xlocale DB 01H
__FF24A107_xiosbase DB 01H
__D677CDBE_streambuf DB 01H
__F6A4A2C2_xlocnum DB 01H
__868129B3_ios DB 01H
__7B331E11_ostream DB 01H
__18E32B2B_istream DB 01H
__CBEEBCDA_iostream DB 01H
__1EA7981F_Time@h DB 01H
__5EC8F362_LeapOrNot@h DB 01H
__9701E443_NumberOfDay@h DB 01H
__29988775_To_congratulate@h DB 01H
__D8D58B4A_monthName@h DB 01H
__6CE96504_Incorrect_Data_yes_or_no@h DB 01H
__1E5359E2_stdafx@h DB 01H
__2ADBDB11_Incorrect_Data_yes_or_no@cpp DB 01H
msvcjmc	ENDS
PUBLIC	?__empty_global_delete@@YAXPAX@Z		; __empty_global_delete
PUBLIC	?__empty_global_delete@@YAXPAXI@Z		; __empty_global_delete
PUBLIC	?length@?$_Narrow_char_traits@DH@std@@SAIQBD@Z	; std::_Narrow_char_traits<char,int>::length
PUBLIC	?eq_int_type@?$_Narrow_char_traits@DH@std@@SA_NABH0@Z ; std::_Narrow_char_traits<char,int>::eq_int_type
PUBLIC	?eof@?$_Narrow_char_traits@DH@std@@SAHXZ	; std::_Narrow_char_traits<char,int>::eof
PUBLIC	?Incorrect_Data_yes_or_no@@YAHHHHHH@Z		; Incorrect_Data_yes_or_no
PUBLIC	??$?6U?$char_traits@D@std@@@std@@YAAAV?$basic_ostream@DU?$char_traits@D@std@@@0@AAV10@PBD@Z ; std::operator<<<std::char_traits<char> >
PUBLIC	??$endl@DU?$char_traits@D@std@@@std@@YAAAV?$basic_ostream@DU?$char_traits@D@std@@@0@AAV10@@Z ; std::endl<char,std::char_traits<char> >
PUBLIC	??0_Sentry_base@?$basic_ostream@DU?$char_traits@D@std@@@std@@QAE@AAV12@@Z ; std::basic_ostream<char,std::char_traits<char> >::_Sentry_base::_Sentry_base
PUBLIC	??1_Sentry_base@?$basic_ostream@DU?$char_traits@D@std@@@std@@QAE@XZ ; std::basic_ostream<char,std::char_traits<char> >::_Sentry_base::~_Sentry_base
PUBLIC	??0sentry@?$basic_ostream@DU?$char_traits@D@std@@@std@@QAE@AAV12@@Z ; std::basic_ostream<char,std::char_traits<char> >::sentry::sentry
PUBLIC	??1sentry@?$basic_ostream@DU?$char_traits@D@std@@@std@@QAE@XZ ; std::basic_ostream<char,std::char_traits<char> >::sentry::~sentry
PUBLIC	??Bsentry@?$basic_ostream@DU?$char_traits@D@std@@@std@@QBE_NXZ ; std::basic_ostream<char,std::char_traits<char> >::sentry::operator bool
PUBLIC	__JustMyCode_Default
PUBLIC	??_C@_0DF@NLBOJDFJ@?B?$PL?5?b?b?e?k?h?5?q?k?h?x?j?n?l?5?a?n?k?$PM?x?n?e?5?g?m?$OA?w?e?m@ ; `string'
PUBLIC	??_C@_0EK@IMLLBPBI@?B?$PL?5?b?b?e?k?h?5?q?k?h?x?j?n?l?5?a?n?k?$PM?x?n?e?5?g?m?$OA?w?e?m@ ; `string'
PUBLIC	??_C@_0EI@KLKDCIPD@?B?$PL?5?b?b?e?k?h?5?q?k?h?x?j?n?l?5?a?n?k?$PM?x?n?e?5?g?m?$OA?w?e?m@ ; `string'
PUBLIC	??_C@_0DE@PFIFBEOG@?B?$PL?5?b?b?e?k?h?5?q?k?h?x?j?n?l?5?a?n?k?$PM?x?n?e?5?g?m?$OA?w?e?m@ ; `string'
PUBLIC	??_C@_0DF@NPKPHLGH@?B?$PL?5?b?b?e?k?h?5?q?k?h?x?j?n?l?5?a?n?k?$PM?x?n?e?5?g?m?$OA?w?e?m@ ; `string'
PUBLIC	??_C@_0DC@KGGDJCKF@?B?$PL?5?b?b?e?k?h?5?q?k?h?x?j?n?l?5?a?n?k?$PM?x?n?e?5?g?m?$OA?w?e?m@ ; `string'
PUBLIC	??_C@_0DD@LCIHLNIN@?B?$PL?5?b?b?e?k?h?5?q?k?h?x?j?n?l?5?a?n?k?$PM?x?n?e?5?g?m?$OA?w?e?m@ ; `string'
PUBLIC	??_C@_0DD@HODJBKEG@?B?$PL?5?b?b?e?k?h?5?q?k?h?x?j?n?l?5?a?n?k?$PM?x?n?e?5?g?m?$OA?w?e?m@ ; `string'
PUBLIC	??_C@_0DG@CNDEPNCE@?B?$PL?5?b?b?e?k?h?5?q?k?h?x?j?n?l?5?a?n?k?$PM?x?n?e?5?g?m?$OA?w?e?m@ ; `string'
PUBLIC	??_C@_0DH@FHAFLEFC@?B?$PL?5?b?b?e?k?h?5?q?k?h?x?j?n?l?5?a?n?k?$PM?x?n?e?5?g?m?$OA?w?e?m@ ; `string'
PUBLIC	??_C@_0DG@JAFDHHDC@?B?$PL?5?b?b?e?k?h?5?q?k?h?x?j?n?l?5?a?n?k?$PM?x?n?e?5?g?m?$OA?w?e?m@ ; `string'
PUBLIC	??_C@_0DF@IELJHFEE@?B?$PL?5?b?b?e?k?h?5?q?k?h?x?j?n?l?5?a?n?k?$PM?x?n?e?5?g?m?$OA?w?e?m@ ; `string'
PUBLIC	??_C@_0DG@JHFIBEAD@?B?$PL?5?b?b?e?k?h?5?q?k?h?x?j?n?l?5?a?n?k?$PM?x?n?e?5?g?m?$OA?w?e?m@ ; `string'
PUBLIC	??_C@_0DF@GBNBKAPK@?M?e?b?e?p?m?n?e?5?j?n?k?h?w?e?q?r?b?n?5?d?$OA?m?m?$PL?u?5?h?k?h?5@ ; `string'
PUBLIC	??_C@_0DB@CEJLHCGC@?M?e?b?e?p?m?$PL?i?5?t?n?p?l?$OA?r?5?l?e?q?$PP?v?$OA?0?5?$OA?5?h?l?e?m?m@ ; `string'
PUBLIC	??_C@_0DA@CIPDFLEI@?M?e?b?e?p?m?$PL?i?5?t?n?p?l?$OA?r?5?l?e?q?$PP?v?$OA?0?5?$OA?5?h?l?e?m?m@ ; `string'
EXTRN	__imp__exit:PROC
EXTRN	_strlen:PROC
EXTRN	?uncaught_exception@std@@YA_NXZ:PROC		; std::uncaught_exception
EXTRN	__imp_?good@ios_base@std@@QBE_NXZ:PROC
EXTRN	__imp_?flags@ios_base@std@@QBEHXZ:PROC
EXTRN	__imp_?width@ios_base@std@@QBE_JXZ:PROC
EXTRN	__imp_?width@ios_base@std@@QAE_J_J@Z:PROC
EXTRN	__imp_?sputc@?$basic_streambuf@DU?$char_traits@D@std@@@std@@QAEHD@Z:PROC
EXTRN	__imp_?sputn@?$basic_streambuf@DU?$char_traits@D@std@@@std@@QAE_JPBD_J@Z:PROC
EXTRN	__imp_?setstate@?$basic_ios@DU?$char_traits@D@std@@@std@@QAEXH_N@Z:PROC
EXTRN	__imp_?tie@?$basic_ios@DU?$char_traits@D@std@@@std@@QBEPAV?$basic_ostream@DU?$char_traits@D@std@@@2@XZ:PROC
EXTRN	__imp_?rdbuf@?$basic_ios@DU?$char_traits@D@std@@@std@@QBEPAV?$basic_streambuf@DU?$char_traits@D@std@@@2@XZ:PROC
EXTRN	__imp_?fill@?$basic_ios@DU?$char_traits@D@std@@@std@@QBEDXZ:PROC
EXTRN	__imp_?widen@?$basic_ios@DU?$char_traits@D@std@@@std@@QBEDD@Z:PROC
EXTRN	__imp_?_Osfx@?$basic_ostream@DU?$char_traits@D@std@@@std@@QAEXXZ:PROC
EXTRN	__imp_??6?$basic_ostream@DU?$char_traits@D@std@@@std@@QAEAAV01@P6AAAV01@AAV01@@Z@Z:PROC
EXTRN	__imp_?put@?$basic_ostream@DU?$char_traits@D@std@@@std@@QAEAAV12@D@Z:PROC
EXTRN	__imp_?flush@?$basic_ostream@DU?$char_traits@D@std@@@std@@QAEAAV12@XZ:PROC
EXTRN	@_RTC_CheckStackVars@8:PROC
EXTRN	@__CheckForDebuggerJustMyCode@4:PROC
EXTRN	@__security_check_cookie@4:PROC
EXTRN	__RTC_CheckEsp:PROC
EXTRN	__RTC_InitBase:PROC
EXTRN	__RTC_Shutdown:PROC
EXTRN	___CxxFrameHandler3:PROC
EXTRN	__imp_?cout@std@@3V?$basic_ostream@DU?$char_traits@D@std@@@1@A:BYTE
EXTRN	___security_cookie:DWORD
;	COMDAT rtc$TMZ
rtc$TMZ	SEGMENT
__RTC_Shutdown.rtc$TMZ DD FLAT:__RTC_Shutdown
rtc$TMZ	ENDS
;	COMDAT rtc$IMZ
rtc$IMZ	SEGMENT
__RTC_InitBase.rtc$IMZ DD FLAT:__RTC_InitBase
rtc$IMZ	ENDS
;	COMDAT ??_C@_0DA@CIPDFLEI@?M?e?b?e?p?m?$PL?i?5?t?n?p?l?$OA?r?5?l?e?q?$PP?v?$OA?0?5?$OA?5?h?l?e?m?m@
CONST	SEGMENT
??_C@_0DA@CIPDFLEI@?M?e?b?e?p?m?$PL?i?5?t?n?p?l?$OA?r?5?l?e?q?$PP?v?$OA?0?5?$OA?5?h?l?e?m?m@ DB 0cdH
	DB	0e5H, 0e2H, 0e5H, 0f0H, 0edH, 0fbH, 0e9H, ' ', 0f4H, 0eeH, 0f0H
	DB	0ecH, 0e0H, 0f2H, ' ', 0ecH, 0e5H, 0f1H, 0ffH, 0f6H, 0e0H, ', '
	DB	0e0H, ' ', 0e8H, 0ecH, 0e5H, 0edH, 0edH, 0eeH, ':', 0ecH, 0e5H
	DB	0f1H, 0ffH, 0f6H, ' ', 0ecH, 0e5H, 0edH, 0fcH, 0f8H, 0e5H, ' 1'
	DB	00H						; `string'
CONST	ENDS
;	COMDAT ??_C@_0DB@CEJLHCGC@?M?e?b?e?p?m?$PL?i?5?t?n?p?l?$OA?r?5?l?e?q?$PP?v?$OA?0?5?$OA?5?h?l?e?m?m@
CONST	SEGMENT
??_C@_0DB@CEJLHCGC@?M?e?b?e?p?m?$PL?i?5?t?n?p?l?$OA?r?5?l?e?q?$PP?v?$OA?0?5?$OA?5?h?l?e?m?m@ DB 0cdH
	DB	0e5H, 0e2H, 0e5H, 0f0H, 0edH, 0fbH, 0e9H, ' ', 0f4H, 0eeH, 0f0H
	DB	0ecH, 0e0H, 0f2H, ' ', 0ecH, 0e5H, 0f1H, 0ffH, 0f6H, 0e0H, ', '
	DB	0e0H, ' ', 0e8H, 0ecH, 0e5H, 0edH, 0edH, 0eeH, ':', 0ecH, 0e5H
	DB	0f1H, 0ffH, 0f6H, ' ', 0e1H, 0eeH, 0ebH, 0fcH, 0f8H, 0e5H, ' 1'
	DB	'2', 00H					; `string'
CONST	ENDS
;	COMDAT ??_C@_0DF@GBNBKAPK@?M?e?b?e?p?m?n?e?5?j?n?k?h?w?e?q?r?b?n?5?d?$OA?m?m?$PL?u?5?h?k?h?5@
CONST	SEGMENT
??_C@_0DF@GBNBKAPK@?M?e?b?e?p?m?n?e?5?j?n?k?h?w?e?q?r?b?n?5?d?$OA?m?m?$PL?u?5?h?k?h?5@ DB 0cdH
	DB	0e5H, 0e2H, 0e5H, 0f0H, 0edH, 0eeH, 0e5H, ' ', 0eaH, 0eeH, 0ebH
	DB	0e8H, 0f7H, 0e5H, 0f1H, 0f2H, 0e2H, 0eeH, ' ', 0e4H, 0e0H, 0edH
	DB	0edH, 0fbH, 0f5H, ' ', 0e8H, 0ebH, 0e8H, ' ', 0e2H, ' ', 0e4H, 0e0H
	DB	0f2H, 0f3H, ' ', 0e2H, 0e2H, 0e5H, 0e4H, 0e5H, 0edH, 0edH, 0e0H
	DB	' ', 0f6H, 0e8H, 0f4H, 0f0H, 0e0H, 00H	; `string'
CONST	ENDS
;	COMDAT ??_C@_0DG@JHFIBEAD@?B?$PL?5?b?b?e?k?h?5?q?k?h?x?j?n?l?5?a?n?k?$PM?x?n?e?5?g?m?$OA?w?e?m@
CONST	SEGMENT
??_C@_0DG@JHFIBEAD@?B?$PL?5?b?b?e?k?h?5?q?k?h?x?j?n?l?5?a?n?k?$PM?x?n?e?5?g?m?$OA?w?e?m@ DB 0c2H
	DB	0fbH, ' ', 0e2H, 0e2H, 0e5H, 0ebH, 0e8H, ' ', 0f1H, 0ebH, 0e8H
	DB	0f8H, 0eaH, 0eeH, 0ecH, ' ', 0e1H, 0eeH, 0ebH, 0fcH, 0f8H, 0eeH
	DB	0e5H, ' ', 0e7H, 0edH, 0e0H, 0f7H, 0e5H, 0edH, 0e8H, 0e5H, ' ('
	DB	0e2H, ' ', 0e4H, 0e5H, 0eaH, 0e0H, 0e1H, 0f0H, 0e5H, ' 31 ', 0e4H
	DB	0e5H, 0edH, 0fcH, ')', 00H			; `string'
CONST	ENDS
;	COMDAT ??_C@_0DF@IELJHFEE@?B?$PL?5?b?b?e?k?h?5?q?k?h?x?j?n?l?5?a?n?k?$PM?x?n?e?5?g?m?$OA?w?e?m@
CONST	SEGMENT
??_C@_0DF@IELJHFEE@?B?$PL?5?b?b?e?k?h?5?q?k?h?x?j?n?l?5?a?n?k?$PM?x?n?e?5?g?m?$OA?w?e?m@ DB 0c2H
	DB	0fbH, ' ', 0e2H, 0e2H, 0e5H, 0ebH, 0e8H, ' ', 0f1H, 0ebH, 0e8H
	DB	0f8H, 0eaH, 0eeH, 0ecH, ' ', 0e1H, 0eeH, 0ebH, 0fcH, 0f8H, 0eeH
	DB	0e5H, ' ', 0e7H, 0edH, 0e0H, 0f7H, 0e5H, 0edH, 0e8H, 0e5H, ' ('
	DB	0e2H, ' ', 0edH, 0eeH, 0ffH, 0e1H, 0f0H, 0e5H, ' 30 ', 0e4H, 0edH
	DB	0e5H, 0e9H, ')', 00H				; `string'
CONST	ENDS
;	COMDAT ??_C@_0DG@JAFDHHDC@?B?$PL?5?b?b?e?k?h?5?q?k?h?x?j?n?l?5?a?n?k?$PM?x?n?e?5?g?m?$OA?w?e?m@
CONST	SEGMENT
??_C@_0DG@JAFDHHDC@?B?$PL?5?b?b?e?k?h?5?q?k?h?x?j?n?l?5?a?n?k?$PM?x?n?e?5?g?m?$OA?w?e?m@ DB 0c2H
	DB	0fbH, ' ', 0e2H, 0e2H, 0e5H, 0ebH, 0e8H, ' ', 0f1H, 0ebH, 0e8H
	DB	0f8H, 0eaH, 0eeH, 0ecH, ' ', 0e1H, 0eeH, 0ebH, 0fcH, 0f8H, 0eeH
	DB	0e5H, ' ', 0e7H, 0edH, 0e0H, 0f7H, 0e5H, 0edH, 0e8H, 0e5H, ' ('
	DB	0e2H, ' ', 0eeH, 0eaH, 0f2H, 0ffH, 0e1H, 0f0H, 0e5H, ' 31 ', 0e4H
	DB	0e5H, 0edH, 0fcH, ')', 00H			; `string'
CONST	ENDS
;	COMDAT ??_C@_0DH@FHAFLEFC@?B?$PL?5?b?b?e?k?h?5?q?k?h?x?j?n?l?5?a?n?k?$PM?x?n?e?5?g?m?$OA?w?e?m@
CONST	SEGMENT
??_C@_0DH@FHAFLEFC@?B?$PL?5?b?b?e?k?h?5?q?k?h?x?j?n?l?5?a?n?k?$PM?x?n?e?5?g?m?$OA?w?e?m@ DB 0c2H
	DB	0fbH, ' ', 0e2H, 0e2H, 0e5H, 0ebH, 0e8H, ' ', 0f1H, 0ebH, 0e8H
	DB	0f8H, 0eaH, 0eeH, 0ecH, ' ', 0e1H, 0eeH, 0ebH, 0fcH, 0f8H, 0eeH
	DB	0e5H, ' ', 0e7H, 0edH, 0e0H, 0f7H, 0e5H, 0edH, 0e8H, 0e5H, ' ('
	DB	0e2H, ' ', 0f1H, 0e5H, 0edH, 0f2H, 0ffH, 0e1H, 0f0H, 0e5H, ' 3'
	DB	'0 ', 0e4H, 0edH, 0e5H, 0e9H, ')', 00H	; `string'
CONST	ENDS
;	COMDAT ??_C@_0DG@CNDEPNCE@?B?$PL?5?b?b?e?k?h?5?q?k?h?x?j?n?l?5?a?n?k?$PM?x?n?e?5?g?m?$OA?w?e?m@
CONST	SEGMENT
??_C@_0DG@CNDEPNCE@?B?$PL?5?b?b?e?k?h?5?q?k?h?x?j?n?l?5?a?n?k?$PM?x?n?e?5?g?m?$OA?w?e?m@ DB 0c2H
	DB	0fbH, ' ', 0e2H, 0e2H, 0e5H, 0ebH, 0e8H, ' ', 0f1H, 0ebH, 0e8H
	DB	0f8H, 0eaH, 0eeH, 0ecH, ' ', 0e1H, 0eeH, 0ebH, 0fcH, 0f8H, 0eeH
	DB	0e5H, ' ', 0e7H, 0edH, 0e0H, 0f7H, 0e5H, 0edH, 0e8H, 0e5H, ' ('
	DB	0e2H, ' ', 0e0H, 0e2H, 0e3H, 0f3H, 0f1H, 0f2H, 0e5H, ' 31 ', 0e4H
	DB	0e5H, 0edH, 0fcH, ')', 00H			; `string'
CONST	ENDS
;	COMDAT ??_C@_0DD@HODJBKEG@?B?$PL?5?b?b?e?k?h?5?q?k?h?x?j?n?l?5?a?n?k?$PM?x?n?e?5?g?m?$OA?w?e?m@
CONST	SEGMENT
??_C@_0DD@HODJBKEG@?B?$PL?5?b?b?e?k?h?5?q?k?h?x?j?n?l?5?a?n?k?$PM?x?n?e?5?g?m?$OA?w?e?m@ DB 0c2H
	DB	0fbH, ' ', 0e2H, 0e2H, 0e5H, 0ebH, 0e8H, ' ', 0f1H, 0ebH, 0e8H
	DB	0f8H, 0eaH, 0eeH, 0ecH, ' ', 0e1H, 0eeH, 0ebH, 0fcH, 0f8H, 0eeH
	DB	0e5H, ' ', 0e7H, 0edH, 0e0H, 0f7H, 0e5H, 0edH, 0e8H, 0e5H, ' ('
	DB	0e2H, ' ', 0e8H, 0feH, 0ebH, 0e5H, ' 31 ', 0e4H, 0e5H, 0edH, 0fcH
	DB	')', 00H					; `string'
CONST	ENDS
;	COMDAT ??_C@_0DD@LCIHLNIN@?B?$PL?5?b?b?e?k?h?5?q?k?h?x?j?n?l?5?a?n?k?$PM?x?n?e?5?g?m?$OA?w?e?m@
CONST	SEGMENT
??_C@_0DD@LCIHLNIN@?B?$PL?5?b?b?e?k?h?5?q?k?h?x?j?n?l?5?a?n?k?$PM?x?n?e?5?g?m?$OA?w?e?m@ DB 0c2H
	DB	0fbH, ' ', 0e2H, 0e2H, 0e5H, 0ebH, 0e8H, ' ', 0f1H, 0ebH, 0e8H
	DB	0f8H, 0eaH, 0eeH, 0ecH, ' ', 0e1H, 0eeH, 0ebH, 0fcH, 0f8H, 0eeH
	DB	0e5H, ' ', 0e7H, 0edH, 0e0H, 0f7H, 0e5H, 0edH, 0e8H, 0e5H, ' ('
	DB	0e2H, ' ', 0e8H, 0feH, 0edH, 0e5H, ' 30 ', 0e4H, 0edH, 0e5H, 0e9H
	DB	')', 00H					; `string'
CONST	ENDS
;	COMDAT ??_C@_0DC@KGGDJCKF@?B?$PL?5?b?b?e?k?h?5?q?k?h?x?j?n?l?5?a?n?k?$PM?x?n?e?5?g?m?$OA?w?e?m@
CONST	SEGMENT
??_C@_0DC@KGGDJCKF@?B?$PL?5?b?b?e?k?h?5?q?k?h?x?j?n?l?5?a?n?k?$PM?x?n?e?5?g?m?$OA?w?e?m@ DB 0c2H
	DB	0fbH, ' ', 0e2H, 0e2H, 0e5H, 0ebH, 0e8H, ' ', 0f1H, 0ebH, 0e8H
	DB	0f8H, 0eaH, 0eeH, 0ecH, ' ', 0e1H, 0eeH, 0ebH, 0fcH, 0f8H, 0eeH
	DB	0e5H, ' ', 0e7H, 0edH, 0e0H, 0f7H, 0e5H, 0edH, 0e8H, 0e5H, ' ('
	DB	0e2H, ' ', 0ecH, 0e0H, 0e5H, ' 31 ', 0e4H, 0e5H, 0edH, 0fcH, ')'
	DB	00H						; `string'
CONST	ENDS
;	COMDAT ??_C@_0DF@NPKPHLGH@?B?$PL?5?b?b?e?k?h?5?q?k?h?x?j?n?l?5?a?n?k?$PM?x?n?e?5?g?m?$OA?w?e?m@
CONST	SEGMENT
??_C@_0DF@NPKPHLGH@?B?$PL?5?b?b?e?k?h?5?q?k?h?x?j?n?l?5?a?n?k?$PM?x?n?e?5?g?m?$OA?w?e?m@ DB 0c2H
	DB	0fbH, ' ', 0e2H, 0e2H, 0e5H, 0ebH, 0e8H, ' ', 0f1H, 0ebH, 0e8H
	DB	0f8H, 0eaH, 0eeH, 0ecH, ' ', 0e1H, 0eeH, 0ebH, 0fcH, 0f8H, 0eeH
	DB	0e5H, ' ', 0e7H, 0edH, 0e0H, 0f7H, 0e5H, 0edH, 0e8H, 0e5H, ' ('
	DB	0e2H, ' ', 0e0H, 0efH, 0f0H, 0e5H, 0ebH, 0e5H, ' 30 ', 0e4H, 0edH
	DB	0e5H, 0e9H, ')', 00H				; `string'
CONST	ENDS
;	COMDAT ??_C@_0DE@PFIFBEOG@?B?$PL?5?b?b?e?k?h?5?q?k?h?x?j?n?l?5?a?n?k?$PM?x?n?e?5?g?m?$OA?w?e?m@
CONST	SEGMENT
??_C@_0DE@PFIFBEOG@?B?$PL?5?b?b?e?k?h?5?q?k?h?x?j?n?l?5?a?n?k?$PM?x?n?e?5?g?m?$OA?w?e?m@ DB 0c2H
	DB	0fbH, ' ', 0e2H, 0e2H, 0e5H, 0ebH, 0e8H, ' ', 0f1H, 0ebH, 0e8H
	DB	0f8H, 0eaH, 0eeH, 0ecH, ' ', 0e1H, 0eeH, 0ebH, 0fcH, 0f8H, 0eeH
	DB	0e5H, ' ', 0e7H, 0edH, 0e0H, 0f7H, 0e5H, 0edH, 0e8H, 0e5H, ' ('
	DB	0e2H, ' ', 0ecH, 0e0H, 0f0H, 0f2H, 0e5H, ' 31 ', 0e4H, 0e5H, 0edH
	DB	0fcH, ')', 00H				; `string'
CONST	ENDS
;	COMDAT ??_C@_0EI@KLKDCIPD@?B?$PL?5?b?b?e?k?h?5?q?k?h?x?j?n?l?5?a?n?k?$PM?x?n?e?5?g?m?$OA?w?e?m@
CONST	SEGMENT
??_C@_0EI@KLKDCIPD@?B?$PL?5?b?b?e?k?h?5?q?k?h?x?j?n?l?5?a?n?k?$PM?x?n?e?5?g?m?$OA?w?e?m@ DB 0c2H
	DB	0fbH, ' ', 0e2H, 0e2H, 0e5H, 0ebH, 0e8H, ' ', 0f1H, 0ebH, 0e8H
	DB	0f8H, 0eaH, 0eeH, 0ecH, ' ', 0e1H, 0eeH, 0ebH, 0fcH, 0f8H, 0eeH
	DB	0e5H, ' ', 0e7H, 0edH, 0e0H, 0f7H, 0e5H, 0edH, 0e8H, 0e5H, ' ('
	DB	0e2H, ' ', 0f4H, 0e5H, 0e2H, 0f0H, 0e0H, 0ebH, 0e5H, ' ', 0e2H
	DB	' ', 0e2H, 0e8H, 0f1H, 0eeH, 0eaH, 0eeH, 0f1H, 0edH, 0eeH, 0ecH
	DB	' ', 0e3H, 0eeH, 0e4H, 0f3H, ' 29 ', 0e4H, 0edH, 0e5H, 0e9H, ')'
	DB	00H						; `string'
CONST	ENDS
;	COMDAT ??_C@_0EK@IMLLBPBI@?B?$PL?5?b?b?e?k?h?5?q?k?h?x?j?n?l?5?a?n?k?$PM?x?n?e?5?g?m?$OA?w?e?m@
CONST	SEGMENT
??_C@_0EK@IMLLBPBI@?B?$PL?5?b?b?e?k?h?5?q?k?h?x?j?n?l?5?a?n?k?$PM?x?n?e?5?g?m?$OA?w?e?m@ DB 0c2H
	DB	0fbH, ' ', 0e2H, 0e2H, 0e5H, 0ebH, 0e8H, ' ', 0f1H, 0ebH, 0e8H
	DB	0f8H, 0eaH, 0eeH, 0ecH, ' ', 0e1H, 0eeH, 0ebH, 0fcH, 0f8H, 0eeH
	DB	0e5H, ' ', 0e7H, 0edH, 0e0H, 0f7H, 0e5H, 0edH, 0e8H, 0e5H, ' ('
	DB	0e2H, ' ', 0f4H, 0e5H, 0e2H, 0f0H, 0e0H, 0ebH, 0e5H, ' ', 0e2H
	DB	' ', 0edH, 0e5H, 0e2H, 0e8H, 0f1H, 0eeH, 0eaH, 0eeH, 0f1H, 0edH
	DB	0eeH, 0ecH, ' ', 0e3H, 0eeH, 0e4H, 0f3H, ' 28 ', 0e4H, 0edH, 0e5H
	DB	0e9H, ')', 00H				; `string'
CONST	ENDS
;	COMDAT ??_C@_0DF@NLBOJDFJ@?B?$PL?5?b?b?e?k?h?5?q?k?h?x?j?n?l?5?a?n?k?$PM?x?n?e?5?g?m?$OA?w?e?m@
CONST	SEGMENT
??_C@_0DF@NLBOJDFJ@?B?$PL?5?b?b?e?k?h?5?q?k?h?x?j?n?l?5?a?n?k?$PM?x?n?e?5?g?m?$OA?w?e?m@ DB 0c2H
	DB	0fbH, ' ', 0e2H, 0e2H, 0e5H, 0ebH, 0e8H, ' ', 0f1H, 0ebH, 0e8H
	DB	0f8H, 0eaH, 0eeH, 0ecH, ' ', 0e1H, 0eeH, 0ebH, 0fcH, 0f8H, 0eeH
	DB	0e5H, ' ', 0e7H, 0edH, 0e0H, 0f7H, 0e5H, 0edH, 0e8H, 0e5H, ' ('
	DB	0e2H, ' ', 0ffH, 0edH, 0e2H, 0e0H, 0f0H, 0e5H, ' 31 ', 0e4H, 0e5H
	DB	0edH, 0fcH, ')', 00H				; `string'
CONST	ENDS
;	COMDAT voltbl
voltbl	SEGMENT
_volmd	DB	09H
voltbl	ENDS
;	COMDAT xdata$x
xdata$x	SEGMENT
__ehfuncinfo$??1sentry@?$basic_ostream@DU?$char_traits@D@std@@@std@@QAE@XZ DD 019930522H
	DD	00H
	DD	00H
	DD	2 DUP(00H)
	DD	2 DUP(00H)
	DD	00H
	DD	05H
xdata$x	ENDS
;	COMDAT voltbl
voltbl	SEGMENT
_volmd	DB	016H
voltbl	ENDS
;	COMDAT xdata$x
xdata$x	SEGMENT
__unwindtable$??0sentry@?$basic_ostream@DU?$char_traits@D@std@@@std@@QAE@AAV12@@Z DD 0ffffffffH
	DD	FLAT:__unwindfunclet$??0sentry@?$basic_ostream@DU?$char_traits@D@std@@@std@@QAE@AAV12@@Z$0
__ehfuncinfo$??0sentry@?$basic_ostream@DU?$char_traits@D@std@@@std@@QAE@AAV12@@Z DD 019930522H
	DD	01H
	DD	FLAT:__unwindtable$??0sentry@?$basic_ostream@DU?$char_traits@D@std@@@std@@QAE@AAV12@@Z
	DD	2 DUP(00H)
	DD	2 DUP(00H)
	DD	00H
	DD	01H
xdata$x	ENDS
;	COMDAT voltbl
voltbl	SEGMENT
_volmd	DB	09H
voltbl	ENDS
;	COMDAT xdata$x
xdata$x	SEGMENT
__ehfuncinfo$??1_Sentry_base@?$basic_ostream@DU?$char_traits@D@std@@@std@@QAE@XZ DD 019930522H
	DD	00H
	DD	00H
	DD	2 DUP(00H)
	DD	2 DUP(00H)
	DD	00H
	DD	05H
xdata$x	ENDS
;	COMDAT voltbl
voltbl	SEGMENT
_volmd	DB	016H
	DB	023H
voltbl	ENDS
;	COMDAT voltbl
voltbl	SEGMENT
_volmd	DW	034H
	DW	0477H
voltbl	ENDS
;	COMDAT xdata$x
xdata$x	SEGMENT
__catchsym$??$?6U?$char_traits@D@std@@@std@@YAAAV?$basic_ostream@DU?$char_traits@D@std@@@0@AAV10@PBD@Z$3 DD 040H
	DD	00H
	DD	00H
	DD	FLAT:__catch$??$?6U?$char_traits@D@std@@@std@@YAAAV?$basic_ostream@DU?$char_traits@D@std@@@0@AAV10@PBD@Z$0
__tryblocktable$??$?6U?$char_traits@D@std@@@std@@YAAAV?$basic_ostream@DU?$char_traits@D@std@@@0@AAV10@PBD@Z DD 01H
	DD	01H
	DD	02H
	DD	01H
	DD	FLAT:__catchsym$??$?6U?$char_traits@D@std@@@std@@YAAAV?$basic_ostream@DU?$char_traits@D@std@@@0@AAV10@PBD@Z$3
__unwindtable$??$?6U?$char_traits@D@std@@@std@@YAAAV?$basic_ostream@DU?$char_traits@D@std@@@0@AAV10@PBD@Z DD 0ffffffffH
	DD	FLAT:__unwindfunclet$??$?6U?$char_traits@D@std@@@std@@YAAAV?$basic_ostream@DU?$char_traits@D@std@@@0@AAV10@PBD@Z$2
	DD	00H
	DD	00H
	DD	00H
	DD	00H
__ehfuncinfo$??$?6U?$char_traits@D@std@@@std@@YAAAV?$basic_ostream@DU?$char_traits@D@std@@@0@AAV10@PBD@Z DD 019930522H
	DD	03H
	DD	FLAT:__unwindtable$??$?6U?$char_traits@D@std@@@std@@YAAAV?$basic_ostream@DU?$char_traits@D@std@@@0@AAV10@PBD@Z
	DD	01H
	DD	FLAT:__tryblocktable$??$?6U?$char_traits@D@std@@@std@@YAAAV?$basic_ostream@DU?$char_traits@D@std@@@0@AAV10@PBD@Z
	DD	2 DUP(00H)
	DD	00H
	DD	01H
xdata$x	ENDS
; Function compile flags: /Odt
;	COMDAT __JustMyCode_Default
_TEXT	SEGMENT
__JustMyCode_Default PROC				; COMDAT
  00000	55		 push	 ebp
  00001	8b ec		 mov	 ebp, esp
  00003	5d		 pop	 ebp
  00004	c3		 ret	 0
__JustMyCode_Default ENDP
_TEXT	ENDS
; Function compile flags: /Odtp /RTCsu /ZI
; File C:\Program Files\Microsoft Visual Studio\2022\Community\VC\Tools\MSVC\14.34.31933\include\ostream
;	COMDAT ??Bsentry@?$basic_ostream@DU?$char_traits@D@std@@@std@@QBE_NXZ
_TEXT	SEGMENT
_this$ = -8						; size = 4
??Bsentry@?$basic_ostream@DU?$char_traits@D@std@@@std@@QBE_NXZ PROC ; std::basic_ostream<char,std::char_traits<char> >::sentry::operator bool, COMDAT
; _this$ = ecx

; 123  :         explicit __CLR_OR_THIS_CALL operator bool() const {

  00000	55		 push	 ebp
  00001	8b ec		 mov	 ebp, esp
  00003	81 ec cc 00 00
	00		 sub	 esp, 204		; 000000ccH
  00009	53		 push	 ebx
  0000a	56		 push	 esi
  0000b	57		 push	 edi
  0000c	51		 push	 ecx
  0000d	8d 7d f4	 lea	 edi, DWORD PTR [ebp-12]
  00010	b9 03 00 00 00	 mov	 ecx, 3
  00015	b8 cc cc cc cc	 mov	 eax, -858993460		; ccccccccH
  0001a	f3 ab		 rep stosd
  0001c	59		 pop	 ecx
  0001d	89 4d f8	 mov	 DWORD PTR _this$[ebp], ecx
  00020	b9 00 00 00 00	 mov	 ecx, OFFSET __7B331E11_ostream
  00025	e8 00 00 00 00	 call	 @__CheckForDebuggerJustMyCode@4

; 124  :             return _Ok;

  0002a	8b 45 f8	 mov	 eax, DWORD PTR _this$[ebp]
  0002d	8a 40 04	 mov	 al, BYTE PTR [eax+4]

; 125  :         }

  00030	5f		 pop	 edi
  00031	5e		 pop	 esi
  00032	5b		 pop	 ebx
  00033	81 c4 cc 00 00
	00		 add	 esp, 204		; 000000ccH
  00039	3b ec		 cmp	 ebp, esp
  0003b	e8 00 00 00 00	 call	 __RTC_CheckEsp
  00040	8b e5		 mov	 esp, ebp
  00042	5d		 pop	 ebp
  00043	c3		 ret	 0
??Bsentry@?$basic_ostream@DU?$char_traits@D@std@@@std@@QBE_NXZ ENDP ; std::basic_ostream<char,std::char_traits<char> >::sentry::operator bool
_TEXT	ENDS
; Function compile flags: /Odtp /RTCsu /ZI
; File C:\Program Files\Microsoft Visual Studio\2022\Community\VC\Tools\MSVC\14.34.31933\include\ostream
;	COMDAT ??1sentry@?$basic_ostream@DU?$char_traits@D@std@@@std@@QAE@XZ
_TEXT	SEGMENT
tv72 = -229						; size = 1
__Zero_uncaught_exceptions$ = -29			; size = 1
_this$ = -20						; size = 4
__$EHRec$ = -12						; size = 12
??1sentry@?$basic_ostream@DU?$char_traits@D@std@@@std@@QAE@XZ PROC ; std::basic_ostream<char,std::char_traits<char> >::sentry::~sentry, COMDAT
; _this$ = ecx

; 108  :         __CLR_OR_THIS_CALL ~sentry() noexcept {

  00000	55		 push	 ebp
  00001	8b ec		 mov	 ebp, esp
  00003	6a ff		 push	 -1
  00005	68 00 00 00 00	 push	 __ehhandler$??1sentry@?$basic_ostream@DU?$char_traits@D@std@@@std@@QAE@XZ
  0000a	64 a1 00 00 00
	00		 mov	 eax, DWORD PTR fs:0
  00010	50		 push	 eax
  00011	81 ec dc 00 00
	00		 sub	 esp, 220		; 000000dcH
  00017	53		 push	 ebx
  00018	56		 push	 esi
  00019	57		 push	 edi
  0001a	51		 push	 ecx
  0001b	8d 7d d8	 lea	 edi, DWORD PTR [ebp-40]
  0001e	b9 07 00 00 00	 mov	 ecx, 7
  00023	b8 cc cc cc cc	 mov	 eax, -858993460		; ccccccccH
  00028	f3 ab		 rep stosd
  0002a	59		 pop	 ecx
  0002b	a1 00 00 00 00	 mov	 eax, DWORD PTR ___security_cookie
  00030	33 c5		 xor	 eax, ebp
  00032	50		 push	 eax
  00033	8d 45 f4	 lea	 eax, DWORD PTR __$EHRec$[ebp]
  00036	64 a3 00 00 00
	00		 mov	 DWORD PTR fs:0, eax
  0003c	89 4d ec	 mov	 DWORD PTR _this$[ebp], ecx
  0003f	b9 00 00 00 00	 mov	 ecx, OFFSET __7B331E11_ostream
  00044	e8 00 00 00 00	 call	 @__CheckForDebuggerJustMyCode@4

; 109  : #if !_HAS_EXCEPTIONS
; 110  :             const bool _Zero_uncaught_exceptions = true;
; 111  : #elif _HAS_DEPRECATED_UNCAUGHT_EXCEPTION
; 112  :             const bool _Zero_uncaught_exceptions = !_STD uncaught_exception(); // TRANSITION, ArchivedOS-12000909

  00049	e8 00 00 00 00	 call	 ?uncaught_exception@std@@YA_NXZ ; std::uncaught_exception
  0004e	0f b6 c0	 movzx	 eax, al
  00051	85 c0		 test	 eax, eax
  00053	75 09		 jne	 SHORT $LN4@sentry
  00055	c6 85 1b ff ff
	ff 01		 mov	 BYTE PTR tv72[ebp], 1
  0005c	eb 07		 jmp	 SHORT $LN5@sentry
$LN4@sentry:
  0005e	c6 85 1b ff ff
	ff 00		 mov	 BYTE PTR tv72[ebp], 0
$LN5@sentry:
  00065	8a 8d 1b ff ff
	ff		 mov	 cl, BYTE PTR tv72[ebp]
  0006b	88 4d e3	 mov	 BYTE PTR __Zero_uncaught_exceptions$[ebp], cl

; 113  : #else // ^^^ _HAS_DEPRECATED_UNCAUGHT_EXCEPTION / !_HAS_DEPRECATED_UNCAUGHT_EXCEPTION vvv
; 114  :             const bool _Zero_uncaught_exceptions = _STD uncaught_exceptions() == 0;
; 115  : #endif // !_HAS_DEPRECATED_UNCAUGHT_EXCEPTION
; 116  : 
; 117  :             if (_Zero_uncaught_exceptions) {

  0006e	0f b6 45 e3	 movzx	 eax, BYTE PTR __Zero_uncaught_exceptions$[ebp]
  00072	85 c0		 test	 eax, eax
  00074	74 14		 je	 SHORT $LN1@sentry

; 118  :                 this->_Myostr._Osfx();

  00076	8b f4		 mov	 esi, esp
  00078	8b 45 ec	 mov	 eax, DWORD PTR _this$[ebp]
  0007b	8b 08		 mov	 ecx, DWORD PTR [eax]
  0007d	ff 15 00 00 00
	00		 call	 DWORD PTR __imp_?_Osfx@?$basic_ostream@DU?$char_traits@D@std@@@std@@QAEXXZ
  00083	3b f4		 cmp	 esi, esp
  00085	e8 00 00 00 00	 call	 __RTC_CheckEsp
$LN1@sentry:

; 119  :             }
; 120  :         }

  0008a	8b 4d ec	 mov	 ecx, DWORD PTR _this$[ebp]
  0008d	e8 00 00 00 00	 call	 ??1_Sentry_base@?$basic_ostream@DU?$char_traits@D@std@@@std@@QAE@XZ ; std::basic_ostream<char,std::char_traits<char> >::_Sentry_base::~_Sentry_base
  00092	8b 4d f4	 mov	 ecx, DWORD PTR __$EHRec$[ebp]
  00095	64 89 0d 00 00
	00 00		 mov	 DWORD PTR fs:0, ecx
  0009c	59		 pop	 ecx
  0009d	5f		 pop	 edi
  0009e	5e		 pop	 esi
  0009f	5b		 pop	 ebx
  000a0	81 c4 e8 00 00
	00		 add	 esp, 232		; 000000e8H
  000a6	3b ec		 cmp	 ebp, esp
  000a8	e8 00 00 00 00	 call	 __RTC_CheckEsp
  000ad	8b e5		 mov	 esp, ebp
  000af	5d		 pop	 ebp
  000b0	c3		 ret	 0
  000b1	cc		 int	 3
  000b2	cc		 int	 3
  000b3	cc		 int	 3
  000b4	cc		 int	 3
  000b5	cc		 int	 3
_TEXT	ENDS
;	COMDAT text$x
text$x	SEGMENT
__ehhandler$??1sentry@?$basic_ostream@DU?$char_traits@D@std@@@std@@QAE@XZ:
  00000	90		 npad	 1
  00001	90		 npad	 1
  00002	8b 54 24 08	 mov	 edx, DWORD PTR [esp+8]
  00006	8d 42 0c	 lea	 eax, DWORD PTR [edx+12]
  00009	8b 8a 14 ff ff
	ff		 mov	 ecx, DWORD PTR [edx-236]
  0000f	33 c8		 xor	 ecx, eax
  00011	e8 00 00 00 00	 call	 @__security_check_cookie@4
  00016	b8 00 00 00 00	 mov	 eax, OFFSET __ehfuncinfo$??1sentry@?$basic_ostream@DU?$char_traits@D@std@@@std@@QAE@XZ
  0001b	e9 00 00 00 00	 jmp	 ___CxxFrameHandler3
text$x	ENDS
??1sentry@?$basic_ostream@DU?$char_traits@D@std@@@std@@QAE@XZ ENDP ; std::basic_ostream<char,std::char_traits<char> >::sentry::~sentry
; Function compile flags: /Odtp /RTCsu /ZI
; File C:\Program Files\Microsoft Visual Studio\2022\Community\VC\Tools\MSVC\14.34.31933\include\ostream
;	COMDAT ??0sentry@?$basic_ostream@DU?$char_traits@D@std@@@std@@QAE@AAV12@@Z
_TEXT	SEGMENT
__Tied$ = -32						; size = 4
_this$ = -20						; size = 4
__$EHRec$ = -12						; size = 12
__Ostr$ = 8						; size = 4
??0sentry@?$basic_ostream@DU?$char_traits@D@std@@@std@@QAE@AAV12@@Z PROC ; std::basic_ostream<char,std::char_traits<char> >::sentry::sentry, COMDAT
; _this$ = ecx

; 91   :         explicit __CLR_OR_THIS_CALL sentry(basic_ostream& _Ostr) : _Sentry_base(_Ostr) {

  00000	55		 push	 ebp
  00001	8b ec		 mov	 ebp, esp
  00003	6a ff		 push	 -1
  00005	68 00 00 00 00	 push	 __ehhandler$??0sentry@?$basic_ostream@DU?$char_traits@D@std@@@std@@QAE@AAV12@@Z
  0000a	64 a1 00 00 00
	00		 mov	 eax, DWORD PTR fs:0
  00010	50		 push	 eax
  00011	81 ec d8 00 00
	00		 sub	 esp, 216		; 000000d8H
  00017	53		 push	 ebx
  00018	56		 push	 esi
  00019	57		 push	 edi
  0001a	51		 push	 ecx
  0001b	8d 7d dc	 lea	 edi, DWORD PTR [ebp-36]
  0001e	b9 06 00 00 00	 mov	 ecx, 6
  00023	b8 cc cc cc cc	 mov	 eax, -858993460		; ccccccccH
  00028	f3 ab		 rep stosd
  0002a	59		 pop	 ecx
  0002b	a1 00 00 00 00	 mov	 eax, DWORD PTR ___security_cookie
  00030	33 c5		 xor	 eax, ebp
  00032	50		 push	 eax
  00033	8d 45 f4	 lea	 eax, DWORD PTR __$EHRec$[ebp]
  00036	64 a3 00 00 00
	00		 mov	 DWORD PTR fs:0, eax
  0003c	89 4d ec	 mov	 DWORD PTR _this$[ebp], ecx
  0003f	b9 00 00 00 00	 mov	 ecx, OFFSET __7B331E11_ostream
  00044	e8 00 00 00 00	 call	 @__CheckForDebuggerJustMyCode@4
  00049	8b 45 08	 mov	 eax, DWORD PTR __Ostr$[ebp]
  0004c	50		 push	 eax
  0004d	8b 4d ec	 mov	 ecx, DWORD PTR _this$[ebp]
  00050	e8 00 00 00 00	 call	 ??0_Sentry_base@?$basic_ostream@DU?$char_traits@D@std@@@std@@QAE@AAV12@@Z ; std::basic_ostream<char,std::char_traits<char> >::_Sentry_base::_Sentry_base
  00055	c7 45 fc 00 00
	00 00		 mov	 DWORD PTR __$EHRec$[ebp+8], 0

; 92   :             if (!_Ostr.good()) {

  0005c	8b 45 08	 mov	 eax, DWORD PTR __Ostr$[ebp]
  0005f	8b 08		 mov	 ecx, DWORD PTR [eax]
  00061	8b 55 08	 mov	 edx, DWORD PTR __Ostr$[ebp]
  00064	03 51 04	 add	 edx, DWORD PTR [ecx+4]
  00067	8b f4		 mov	 esi, esp
  00069	8b ca		 mov	 ecx, edx
  0006b	ff 15 00 00 00
	00		 call	 DWORD PTR __imp_?good@ios_base@std@@QBE_NXZ
  00071	3b f4		 cmp	 esi, esp
  00073	e8 00 00 00 00	 call	 __RTC_CheckEsp
  00078	0f b6 c0	 movzx	 eax, al
  0007b	85 c0		 test	 eax, eax
  0007d	75 09		 jne	 SHORT $LN2@sentry

; 93   :                 _Ok = false;

  0007f	8b 45 ec	 mov	 eax, DWORD PTR _this$[ebp]
  00082	c6 40 04 00	 mov	 BYTE PTR [eax+4], 0

; 94   :                 return;

  00086	eb 6a		 jmp	 SHORT $LN1@sentry
$LN2@sentry:

; 95   :             }
; 96   : 
; 97   :             const auto _Tied = _Ostr.tie();

  00088	8b 45 08	 mov	 eax, DWORD PTR __Ostr$[ebp]
  0008b	8b 08		 mov	 ecx, DWORD PTR [eax]
  0008d	8b 55 08	 mov	 edx, DWORD PTR __Ostr$[ebp]
  00090	03 51 04	 add	 edx, DWORD PTR [ecx+4]
  00093	8b f4		 mov	 esi, esp
  00095	8b ca		 mov	 ecx, edx
  00097	ff 15 00 00 00
	00		 call	 DWORD PTR __imp_?tie@?$basic_ios@DU?$char_traits@D@std@@@std@@QBEPAV?$basic_ostream@DU?$char_traits@D@std@@@2@XZ
  0009d	3b f4		 cmp	 esi, esp
  0009f	e8 00 00 00 00	 call	 __RTC_CheckEsp
  000a4	89 45 e0	 mov	 DWORD PTR __Tied$[ebp], eax

; 98   :             if (!_Tied || _Tied == &_Ostr) {

  000a7	83 7d e0 00	 cmp	 DWORD PTR __Tied$[ebp], 0
  000ab	74 08		 je	 SHORT $LN4@sentry
  000ad	8b 45 e0	 mov	 eax, DWORD PTR __Tied$[ebp]
  000b0	3b 45 08	 cmp	 eax, DWORD PTR __Ostr$[ebp]
  000b3	75 09		 jne	 SHORT $LN3@sentry
$LN4@sentry:

; 99   :                 _Ok = true;

  000b5	8b 45 ec	 mov	 eax, DWORD PTR _this$[ebp]
  000b8	c6 40 04 01	 mov	 BYTE PTR [eax+4], 1

; 100  :                 return;

  000bc	eb 34		 jmp	 SHORT $LN1@sentry
$LN3@sentry:

; 101  :             }
; 102  : 
; 103  :             _Tied->flush();

  000be	8b f4		 mov	 esi, esp
  000c0	8b 4d e0	 mov	 ecx, DWORD PTR __Tied$[ebp]
  000c3	ff 15 00 00 00
	00		 call	 DWORD PTR __imp_?flush@?$basic_ostream@DU?$char_traits@D@std@@@std@@QAEAAV12@XZ
  000c9	3b f4		 cmp	 esi, esp
  000cb	e8 00 00 00 00	 call	 __RTC_CheckEsp

; 104  :             _Ok = _Ostr.good(); // store test only after flushing tie

  000d0	8b 45 08	 mov	 eax, DWORD PTR __Ostr$[ebp]
  000d3	8b 08		 mov	 ecx, DWORD PTR [eax]
  000d5	8b 55 08	 mov	 edx, DWORD PTR __Ostr$[ebp]
  000d8	03 51 04	 add	 edx, DWORD PTR [ecx+4]
  000db	8b f4		 mov	 esi, esp
  000dd	8b ca		 mov	 ecx, edx
  000df	ff 15 00 00 00
	00		 call	 DWORD PTR __imp_?good@ios_base@std@@QBE_NXZ
  000e5	3b f4		 cmp	 esi, esp
  000e7	e8 00 00 00 00	 call	 __RTC_CheckEsp
  000ec	8b 4d ec	 mov	 ecx, DWORD PTR _this$[ebp]
  000ef	88 41 04	 mov	 BYTE PTR [ecx+4], al
$LN1@sentry:

; 105  :         }

  000f2	c7 45 fc ff ff
	ff ff		 mov	 DWORD PTR __$EHRec$[ebp+8], -1
  000f9	8b 45 ec	 mov	 eax, DWORD PTR _this$[ebp]
  000fc	8b 4d f4	 mov	 ecx, DWORD PTR __$EHRec$[ebp]
  000ff	64 89 0d 00 00
	00 00		 mov	 DWORD PTR fs:0, ecx
  00106	59		 pop	 ecx
  00107	5f		 pop	 edi
  00108	5e		 pop	 esi
  00109	5b		 pop	 ebx
  0010a	81 c4 e4 00 00
	00		 add	 esp, 228		; 000000e4H
  00110	3b ec		 cmp	 ebp, esp
  00112	e8 00 00 00 00	 call	 __RTC_CheckEsp
  00117	8b e5		 mov	 esp, ebp
  00119	5d		 pop	 ebp
  0011a	c2 04 00	 ret	 4
_TEXT	ENDS
;	COMDAT text$x
text$x	SEGMENT
__unwindfunclet$??0sentry@?$basic_ostream@DU?$char_traits@D@std@@@std@@QAE@AAV12@@Z$0:
  00000	8b 4d ec	 mov	 ecx, DWORD PTR _this$[ebp]
  00003	e9 00 00 00 00	 jmp	 ??1_Sentry_base@?$basic_ostream@DU?$char_traits@D@std@@@std@@QAE@XZ ; std::basic_ostream<char,std::char_traits<char> >::_Sentry_base::~_Sentry_base
  00008	cc		 int	 3
  00009	cc		 int	 3
  0000a	cc		 int	 3
  0000b	cc		 int	 3
  0000c	cc		 int	 3
__ehhandler$??0sentry@?$basic_ostream@DU?$char_traits@D@std@@@std@@QAE@AAV12@@Z:
  0000d	90		 npad	 1
  0000e	90		 npad	 1
  0000f	8b 54 24 08	 mov	 edx, DWORD PTR [esp+8]
  00013	8d 42 0c	 lea	 eax, DWORD PTR [edx+12]
  00016	8b 8a 18 ff ff
	ff		 mov	 ecx, DWORD PTR [edx-232]
  0001c	33 c8		 xor	 ecx, eax
  0001e	e8 00 00 00 00	 call	 @__security_check_cookie@4
  00023	b8 00 00 00 00	 mov	 eax, OFFSET __ehfuncinfo$??0sentry@?$basic_ostream@DU?$char_traits@D@std@@@std@@QAE@AAV12@@Z
  00028	e9 00 00 00 00	 jmp	 ___CxxFrameHandler3
text$x	ENDS
??0sentry@?$basic_ostream@DU?$char_traits@D@std@@@std@@QAE@AAV12@@Z ENDP ; std::basic_ostream<char,std::char_traits<char> >::sentry::sentry
; Function compile flags: /Odtp /RTCsu /ZI
; File C:\Program Files\Microsoft Visual Studio\2022\Community\VC\Tools\MSVC\14.34.31933\include\ostream
;	COMDAT ??1_Sentry_base@?$basic_ostream@DU?$char_traits@D@std@@@std@@QAE@XZ
_TEXT	SEGMENT
tv72 = -232						; size = 4
__Rdbuf$ = -32						; size = 4
_this$ = -20						; size = 4
__$EHRec$ = -12						; size = 12
??1_Sentry_base@?$basic_ostream@DU?$char_traits@D@std@@@std@@QAE@XZ PROC ; std::basic_ostream<char,std::char_traits<char> >::_Sentry_base::~_Sentry_base, COMDAT
; _this$ = ecx

; 77   :         __CLR_OR_THIS_CALL ~_Sentry_base() noexcept { // destroy after unlocking

  00000	55		 push	 ebp
  00001	8b ec		 mov	 ebp, esp
  00003	6a ff		 push	 -1
  00005	68 00 00 00 00	 push	 __ehhandler$??1_Sentry_base@?$basic_ostream@DU?$char_traits@D@std@@@std@@QAE@XZ
  0000a	64 a1 00 00 00
	00		 mov	 eax, DWORD PTR fs:0
  00010	50		 push	 eax
  00011	81 ec dc 00 00
	00		 sub	 esp, 220		; 000000dcH
  00017	53		 push	 ebx
  00018	56		 push	 esi
  00019	57		 push	 edi
  0001a	51		 push	 ecx
  0001b	8d 7d d8	 lea	 edi, DWORD PTR [ebp-40]
  0001e	b9 07 00 00 00	 mov	 ecx, 7
  00023	b8 cc cc cc cc	 mov	 eax, -858993460		; ccccccccH
  00028	f3 ab		 rep stosd
  0002a	59		 pop	 ecx
  0002b	a1 00 00 00 00	 mov	 eax, DWORD PTR ___security_cookie
  00030	33 c5		 xor	 eax, ebp
  00032	50		 push	 eax
  00033	8d 45 f4	 lea	 eax, DWORD PTR __$EHRec$[ebp]
  00036	64 a3 00 00 00
	00		 mov	 DWORD PTR fs:0, eax
  0003c	89 4d ec	 mov	 DWORD PTR _this$[ebp], ecx
  0003f	b9 00 00 00 00	 mov	 ecx, OFFSET __7B331E11_ostream
  00044	e8 00 00 00 00	 call	 @__CheckForDebuggerJustMyCode@4

; 78   :             const auto _Rdbuf = _Myostr.rdbuf();

  00049	8b 45 ec	 mov	 eax, DWORD PTR _this$[ebp]
  0004c	8b 08		 mov	 ecx, DWORD PTR [eax]
  0004e	89 8d 18 ff ff
	ff		 mov	 DWORD PTR tv72[ebp], ecx
  00054	8b 95 18 ff ff
	ff		 mov	 edx, DWORD PTR tv72[ebp]
  0005a	8b 02		 mov	 eax, DWORD PTR [edx]
  0005c	8b 8d 18 ff ff
	ff		 mov	 ecx, DWORD PTR tv72[ebp]
  00062	03 48 04	 add	 ecx, DWORD PTR [eax+4]
  00065	8b f4		 mov	 esi, esp
  00067	ff 15 00 00 00
	00		 call	 DWORD PTR __imp_?rdbuf@?$basic_ios@DU?$char_traits@D@std@@@std@@QBEPAV?$basic_streambuf@DU?$char_traits@D@std@@@2@XZ
  0006d	3b f4		 cmp	 esi, esp
  0006f	e8 00 00 00 00	 call	 __RTC_CheckEsp
  00074	89 45 e0	 mov	 DWORD PTR __Rdbuf$[ebp], eax

; 79   :             if (_Rdbuf) {

  00077	83 7d e0 00	 cmp	 DWORD PTR __Rdbuf$[ebp], 0
  0007b	74 16		 je	 SHORT $LN3@Sentry_bas

; 80   :                 _Rdbuf->_Unlock();

  0007d	8b 45 e0	 mov	 eax, DWORD PTR __Rdbuf$[ebp]
  00080	8b 10		 mov	 edx, DWORD PTR [eax]
  00082	8b f4		 mov	 esi, esp
  00084	8b 4d e0	 mov	 ecx, DWORD PTR __Rdbuf$[ebp]
  00087	8b 42 08	 mov	 eax, DWORD PTR [edx+8]
  0008a	ff d0		 call	 eax
  0008c	3b f4		 cmp	 esi, esp
  0008e	e8 00 00 00 00	 call	 __RTC_CheckEsp
$LN3@Sentry_bas:

; 81   :             }
; 82   :         }

  00093	8b 4d f4	 mov	 ecx, DWORD PTR __$EHRec$[ebp]
  00096	64 89 0d 00 00
	00 00		 mov	 DWORD PTR fs:0, ecx
  0009d	59		 pop	 ecx
  0009e	5f		 pop	 edi
  0009f	5e		 pop	 esi
  000a0	5b		 pop	 ebx
  000a1	81 c4 e8 00 00
	00		 add	 esp, 232		; 000000e8H
  000a7	3b ec		 cmp	 ebp, esp
  000a9	e8 00 00 00 00	 call	 __RTC_CheckEsp
  000ae	8b e5		 mov	 esp, ebp
  000b0	5d		 pop	 ebp
  000b1	c3		 ret	 0
  000b2	cc		 int	 3
  000b3	cc		 int	 3
  000b4	cc		 int	 3
  000b5	cc		 int	 3
  000b6	cc		 int	 3
_TEXT	ENDS
;	COMDAT text$x
text$x	SEGMENT
__ehhandler$??1_Sentry_base@?$basic_ostream@DU?$char_traits@D@std@@@std@@QAE@XZ:
  00000	90		 npad	 1
  00001	90		 npad	 1
  00002	8b 54 24 08	 mov	 edx, DWORD PTR [esp+8]
  00006	8d 42 0c	 lea	 eax, DWORD PTR [edx+12]
  00009	8b 8a 14 ff ff
	ff		 mov	 ecx, DWORD PTR [edx-236]
  0000f	33 c8		 xor	 ecx, eax
  00011	e8 00 00 00 00	 call	 @__security_check_cookie@4
  00016	b8 00 00 00 00	 mov	 eax, OFFSET __ehfuncinfo$??1_Sentry_base@?$basic_ostream@DU?$char_traits@D@std@@@std@@QAE@XZ
  0001b	e9 00 00 00 00	 jmp	 ___CxxFrameHandler3
text$x	ENDS
??1_Sentry_base@?$basic_ostream@DU?$char_traits@D@std@@@std@@QAE@XZ ENDP ; std::basic_ostream<char,std::char_traits<char> >::_Sentry_base::~_Sentry_base
; Function compile flags: /Odtp /RTCsu /ZI
; File C:\Program Files\Microsoft Visual Studio\2022\Community\VC\Tools\MSVC\14.34.31933\include\ostream
;	COMDAT ??0_Sentry_base@?$basic_ostream@DU?$char_traits@D@std@@@std@@QAE@AAV12@@Z
_TEXT	SEGMENT
tv73 = -220						; size = 4
__Rdbuf$ = -20						; size = 4
_this$ = -8						; size = 4
__Ostr$ = 8						; size = 4
??0_Sentry_base@?$basic_ostream@DU?$char_traits@D@std@@@std@@QAE@AAV12@@Z PROC ; std::basic_ostream<char,std::char_traits<char> >::_Sentry_base::_Sentry_base, COMDAT
; _this$ = ecx

; 70   :         __CLR_OR_THIS_CALL _Sentry_base(basic_ostream& _Ostr) : _Myostr(_Ostr) { // lock the stream buffer, if there

  00000	55		 push	 ebp
  00001	8b ec		 mov	 ebp, esp
  00003	81 ec dc 00 00
	00		 sub	 esp, 220		; 000000dcH
  00009	53		 push	 ebx
  0000a	56		 push	 esi
  0000b	57		 push	 edi
  0000c	51		 push	 ecx
  0000d	8d 7d e4	 lea	 edi, DWORD PTR [ebp-28]
  00010	b9 07 00 00 00	 mov	 ecx, 7
  00015	b8 cc cc cc cc	 mov	 eax, -858993460		; ccccccccH
  0001a	f3 ab		 rep stosd
  0001c	59		 pop	 ecx
  0001d	89 4d f8	 mov	 DWORD PTR _this$[ebp], ecx
  00020	b9 00 00 00 00	 mov	 ecx, OFFSET __7B331E11_ostream
  00025	e8 00 00 00 00	 call	 @__CheckForDebuggerJustMyCode@4
  0002a	8b 45 f8	 mov	 eax, DWORD PTR _this$[ebp]
  0002d	8b 4d 08	 mov	 ecx, DWORD PTR __Ostr$[ebp]
  00030	89 08		 mov	 DWORD PTR [eax], ecx

; 71   :             const auto _Rdbuf = _Myostr.rdbuf();

  00032	8b 45 f8	 mov	 eax, DWORD PTR _this$[ebp]
  00035	8b 08		 mov	 ecx, DWORD PTR [eax]
  00037	89 8d 24 ff ff
	ff		 mov	 DWORD PTR tv73[ebp], ecx
  0003d	8b 95 24 ff ff
	ff		 mov	 edx, DWORD PTR tv73[ebp]
  00043	8b 02		 mov	 eax, DWORD PTR [edx]
  00045	8b 8d 24 ff ff
	ff		 mov	 ecx, DWORD PTR tv73[ebp]
  0004b	03 48 04	 add	 ecx, DWORD PTR [eax+4]
  0004e	8b f4		 mov	 esi, esp
  00050	ff 15 00 00 00
	00		 call	 DWORD PTR __imp_?rdbuf@?$basic_ios@DU?$char_traits@D@std@@@std@@QBEPAV?$basic_streambuf@DU?$char_traits@D@std@@@2@XZ
  00056	3b f4		 cmp	 esi, esp
  00058	e8 00 00 00 00	 call	 __RTC_CheckEsp
  0005d	89 45 ec	 mov	 DWORD PTR __Rdbuf$[ebp], eax

; 72   :             if (_Rdbuf) {

  00060	83 7d ec 00	 cmp	 DWORD PTR __Rdbuf$[ebp], 0
  00064	74 16		 je	 SHORT $LN1@Sentry_bas

; 73   :                 _Rdbuf->_Lock();

  00066	8b 45 ec	 mov	 eax, DWORD PTR __Rdbuf$[ebp]
  00069	8b 10		 mov	 edx, DWORD PTR [eax]
  0006b	8b f4		 mov	 esi, esp
  0006d	8b 4d ec	 mov	 ecx, DWORD PTR __Rdbuf$[ebp]
  00070	8b 42 04	 mov	 eax, DWORD PTR [edx+4]
  00073	ff d0		 call	 eax
  00075	3b f4		 cmp	 esi, esp
  00077	e8 00 00 00 00	 call	 __RTC_CheckEsp
$LN1@Sentry_bas:

; 74   :             }
; 75   :         }

  0007c	8b 45 f8	 mov	 eax, DWORD PTR _this$[ebp]
  0007f	5f		 pop	 edi
  00080	5e		 pop	 esi
  00081	5b		 pop	 ebx
  00082	81 c4 dc 00 00
	00		 add	 esp, 220		; 000000dcH
  00088	3b ec		 cmp	 ebp, esp
  0008a	e8 00 00 00 00	 call	 __RTC_CheckEsp
  0008f	8b e5		 mov	 esp, ebp
  00091	5d		 pop	 ebp
  00092	c2 04 00	 ret	 4
??0_Sentry_base@?$basic_ostream@DU?$char_traits@D@std@@@std@@QAE@AAV12@@Z ENDP ; std::basic_ostream<char,std::char_traits<char> >::_Sentry_base::_Sentry_base
_TEXT	ENDS
; Function compile flags: /Odtp /RTCsu /ZI
; File C:\Program Files\Microsoft Visual Studio\2022\Community\VC\Tools\MSVC\14.34.31933\include\ostream
;	COMDAT ??$endl@DU?$char_traits@D@std@@@std@@YAAAV?$basic_ostream@DU?$char_traits@D@std@@@0@AAV10@@Z
_TEXT	SEGMENT
__Ostr$ = 8						; size = 4
??$endl@DU?$char_traits@D@std@@@std@@YAAAV?$basic_ostream@DU?$char_traits@D@std@@@0@AAV10@@Z PROC ; std::endl<char,std::char_traits<char> >, COMDAT

; 1005 :     basic_ostream<_Elem, _Traits>& _Ostr) { // insert newline and flush stream

  00000	55		 push	 ebp
  00001	8b ec		 mov	 ebp, esp
  00003	81 ec c0 00 00
	00		 sub	 esp, 192		; 000000c0H
  00009	53		 push	 ebx
  0000a	56		 push	 esi
  0000b	57		 push	 edi
  0000c	8b fd		 mov	 edi, ebp
  0000e	33 c9		 xor	 ecx, ecx
  00010	b8 cc cc cc cc	 mov	 eax, -858993460		; ccccccccH
  00015	f3 ab		 rep stosd
  00017	b9 00 00 00 00	 mov	 ecx, OFFSET __7B331E11_ostream
  0001c	e8 00 00 00 00	 call	 @__CheckForDebuggerJustMyCode@4

; 1006 :     _Ostr.put(_Ostr.widen('\n'));

  00021	8b f4		 mov	 esi, esp
  00023	6a 0a		 push	 10			; 0000000aH
  00025	8b 45 08	 mov	 eax, DWORD PTR __Ostr$[ebp]
  00028	8b 08		 mov	 ecx, DWORD PTR [eax]
  0002a	8b 55 08	 mov	 edx, DWORD PTR __Ostr$[ebp]
  0002d	03 51 04	 add	 edx, DWORD PTR [ecx+4]
  00030	8b ca		 mov	 ecx, edx
  00032	ff 15 00 00 00
	00		 call	 DWORD PTR __imp_?widen@?$basic_ios@DU?$char_traits@D@std@@@std@@QBEDD@Z
  00038	3b f4		 cmp	 esi, esp
  0003a	e8 00 00 00 00	 call	 __RTC_CheckEsp
  0003f	8b f4		 mov	 esi, esp
  00041	0f b6 c0	 movzx	 eax, al
  00044	50		 push	 eax
  00045	8b 4d 08	 mov	 ecx, DWORD PTR __Ostr$[ebp]
  00048	ff 15 00 00 00
	00		 call	 DWORD PTR __imp_?put@?$basic_ostream@DU?$char_traits@D@std@@@std@@QAEAAV12@D@Z
  0004e	3b f4		 cmp	 esi, esp
  00050	e8 00 00 00 00	 call	 __RTC_CheckEsp

; 1007 :     _Ostr.flush();

  00055	8b f4		 mov	 esi, esp
  00057	8b 4d 08	 mov	 ecx, DWORD PTR __Ostr$[ebp]
  0005a	ff 15 00 00 00
	00		 call	 DWORD PTR __imp_?flush@?$basic_ostream@DU?$char_traits@D@std@@@std@@QAEAAV12@XZ
  00060	3b f4		 cmp	 esi, esp
  00062	e8 00 00 00 00	 call	 __RTC_CheckEsp

; 1008 :     return _Ostr;

  00067	8b 45 08	 mov	 eax, DWORD PTR __Ostr$[ebp]

; 1009 : }

  0006a	5f		 pop	 edi
  0006b	5e		 pop	 esi
  0006c	5b		 pop	 ebx
  0006d	81 c4 c0 00 00
	00		 add	 esp, 192		; 000000c0H
  00073	3b ec		 cmp	 ebp, esp
  00075	e8 00 00 00 00	 call	 __RTC_CheckEsp
  0007a	8b e5		 mov	 esp, ebp
  0007c	5d		 pop	 ebp
  0007d	c3		 ret	 0
??$endl@DU?$char_traits@D@std@@@std@@YAAAV?$basic_ostream@DU?$char_traits@D@std@@@0@AAV10@@Z ENDP ; std::endl<char,std::char_traits<char> >
_TEXT	ENDS
; Function compile flags: /Odtp /RTCsu /ZI
; File C:\Program Files\Microsoft Visual Studio\2022\Community\VC\Tools\MSVC\14.34.31933\include\ostream
;	COMDAT ??$?6U?$char_traits@D@std@@@std@@YAAAV?$basic_ostream@DU?$char_traits@D@std@@@0@AAV10@PBD@Z
_TEXT	SEGMENT
tv135 = -356						; size = 8
tv343 = -348						; size = 8
tv291 = -344						; size = 4
tv288 = -344						; size = 8
tv286 = -344						; size = 4
tv329 = -340						; size = 8
tv290 = -340						; size = 4
tv285 = -340						; size = 4
tv287 = -336						; size = 4
tv137 = -336						; size = 4
tv289 = -333						; size = 1
tv284 = -333						; size = 1
$T2 = -328						; size = 4
$T3 = -316						; size = 4
$T4 = -304						; size = 4
$T5 = -292						; size = 4
$T6 = -280						; size = 4
__Ok$ = -76						; size = 8
__Pad$ = -60						; size = 8
__Count$ = -44						; size = 8
__State$ = -28						; size = 4
__$ArrayPad$ = -20					; size = 4
__$EHRec$ = -16						; size = 16
__Ostr$ = 8						; size = 4
__Val$ = 12						; size = 4
??$?6U?$char_traits@D@std@@@std@@YAAAV?$basic_ostream@DU?$char_traits@D@std@@@0@AAV10@PBD@Z PROC ; std::operator<<<std::char_traits<char> >, COMDAT

; 761  : basic_ostream<char, _Traits>& operator<<(basic_ostream<char, _Traits>& _Ostr, const char* _Val) {

  00000	55		 push	 ebp
  00001	8b ec		 mov	 ebp, esp
  00003	6a ff		 push	 -1
  00005	68 00 00 00 00	 push	 __ehhandler$??$?6U?$char_traits@D@std@@@std@@YAAAV?$basic_ostream@DU?$char_traits@D@std@@@0@AAV10@PBD@Z
  0000a	64 a1 00 00 00
	00		 mov	 eax, DWORD PTR fs:0
  00010	50		 push	 eax
  00011	51		 push	 ecx
  00012	81 ec 54 01 00
	00		 sub	 esp, 340		; 00000154H
  00018	53		 push	 ebx
  00019	56		 push	 esi
  0001a	57		 push	 edi
  0001b	8d bd 5c ff ff
	ff		 lea	 edi, DWORD PTR [ebp-164]
  00021	b9 25 00 00 00	 mov	 ecx, 37			; 00000025H
  00026	b8 cc cc cc cc	 mov	 eax, -858993460		; ccccccccH
  0002b	f3 ab		 rep stosd
  0002d	a1 00 00 00 00	 mov	 eax, DWORD PTR ___security_cookie
  00032	33 c5		 xor	 eax, ebp
  00034	89 45 ec	 mov	 DWORD PTR __$ArrayPad$[ebp], eax
  00037	50		 push	 eax
  00038	8d 45 f4	 lea	 eax, DWORD PTR __$EHRec$[ebp+4]
  0003b	64 a3 00 00 00
	00		 mov	 DWORD PTR fs:0, eax
  00041	89 65 f0	 mov	 DWORD PTR __$EHRec$[ebp], esp
  00044	b9 00 00 00 00	 mov	 ecx, OFFSET __7B331E11_ostream
  00049	e8 00 00 00 00	 call	 @__CheckForDebuggerJustMyCode@4

; 762  :     // insert NTBS into char stream
; 763  :     using _Elem = char;
; 764  :     using _Myos = basic_ostream<_Elem, _Traits>;
; 765  : 
; 766  :     ios_base::iostate _State = ios_base::goodbit;

  0004e	c7 45 e4 00 00
	00 00		 mov	 DWORD PTR __State$[ebp], 0

; 767  :     streamsize _Count        = static_cast<streamsize>(_Traits::length(_Val));

  00055	8b 45 0c	 mov	 eax, DWORD PTR __Val$[ebp]
  00058	50		 push	 eax
  00059	e8 00 00 00 00	 call	 ?length@?$_Narrow_char_traits@DH@std@@SAIQBD@Z ; std::_Narrow_char_traits<char,int>::length
  0005e	83 c4 04	 add	 esp, 4
  00061	33 c9		 xor	 ecx, ecx
  00063	89 45 d4	 mov	 DWORD PTR __Count$[ebp], eax
  00066	89 4d d8	 mov	 DWORD PTR __Count$[ebp+4], ecx

; 768  :     streamsize _Pad          = _Ostr.width() <= 0 || _Ostr.width() <= _Count ? 0 : _Ostr.width() - _Count;

  00069	8b 45 08	 mov	 eax, DWORD PTR __Ostr$[ebp]
  0006c	8b 08		 mov	 ecx, DWORD PTR [eax]
  0006e	8b 55 08	 mov	 edx, DWORD PTR __Ostr$[ebp]
  00071	03 51 04	 add	 edx, DWORD PTR [ecx+4]
  00074	8b f4		 mov	 esi, esp
  00076	8b ca		 mov	 ecx, edx
  00078	ff 15 00 00 00
	00		 call	 DWORD PTR __imp_?width@ios_base@std@@QBE_JXZ
  0007e	3b f4		 cmp	 esi, esp
  00080	e8 00 00 00 00	 call	 __RTC_CheckEsp
  00085	89 85 ac fe ff
	ff		 mov	 DWORD PTR tv329[ebp], eax
  0008b	89 95 b0 fe ff
	ff		 mov	 DWORD PTR tv329[ebp+4], edx
  00091	83 bd b0 fe ff
	ff 00		 cmp	 DWORD PTR tv329[ebp+4], 0
  00098	7c 79		 jl	 SHORT $LN17@operator
  0009a	7f 09		 jg	 SHORT $LN24@operator
  0009c	83 bd ac fe ff
	ff 00		 cmp	 DWORD PTR tv329[ebp], 0
  000a3	76 6e		 jbe	 SHORT $LN17@operator
$LN24@operator:
  000a5	8b 45 08	 mov	 eax, DWORD PTR __Ostr$[ebp]
  000a8	8b 08		 mov	 ecx, DWORD PTR [eax]
  000aa	8b 55 08	 mov	 edx, DWORD PTR __Ostr$[ebp]
  000ad	03 51 04	 add	 edx, DWORD PTR [ecx+4]
  000b0	8b f4		 mov	 esi, esp
  000b2	8b ca		 mov	 ecx, edx
  000b4	ff 15 00 00 00
	00		 call	 DWORD PTR __imp_?width@ios_base@std@@QBE_JXZ
  000ba	3b f4		 cmp	 esi, esp
  000bc	e8 00 00 00 00	 call	 __RTC_CheckEsp
  000c1	89 85 a4 fe ff
	ff		 mov	 DWORD PTR tv343[ebp], eax
  000c7	89 95 a8 fe ff
	ff		 mov	 DWORD PTR tv343[ebp+4], edx
  000cd	8b 85 a8 fe ff
	ff		 mov	 eax, DWORD PTR tv343[ebp+4]
  000d3	3b 45 d8	 cmp	 eax, DWORD PTR __Count$[ebp+4]
  000d6	7c 3b		 jl	 SHORT $LN17@operator
  000d8	7f 0b		 jg	 SHORT $LN25@operator
  000da	8b 8d a4 fe ff
	ff		 mov	 ecx, DWORD PTR tv343[ebp]
  000e0	3b 4d d4	 cmp	 ecx, DWORD PTR __Count$[ebp]
  000e3	76 2e		 jbe	 SHORT $LN17@operator
$LN25@operator:
  000e5	8b 55 08	 mov	 edx, DWORD PTR __Ostr$[ebp]
  000e8	8b 02		 mov	 eax, DWORD PTR [edx]
  000ea	8b 4d 08	 mov	 ecx, DWORD PTR __Ostr$[ebp]
  000ed	03 48 04	 add	 ecx, DWORD PTR [eax+4]
  000f0	8b f4		 mov	 esi, esp
  000f2	ff 15 00 00 00
	00		 call	 DWORD PTR __imp_?width@ios_base@std@@QBE_JXZ
  000f8	3b f4		 cmp	 esi, esp
  000fa	e8 00 00 00 00	 call	 __RTC_CheckEsp
  000ff	2b 45 d4	 sub	 eax, DWORD PTR __Count$[ebp]
  00102	1b 55 d8	 sbb	 edx, DWORD PTR __Count$[ebp+4]
  00105	89 85 9c fe ff
	ff		 mov	 DWORD PTR tv135[ebp], eax
  0010b	89 95 a0 fe ff
	ff		 mov	 DWORD PTR tv135[ebp+4], edx
  00111	eb 0b		 jmp	 SHORT $LN18@operator
$LN17@operator:
  00113	0f 57 c0	 xorps	 xmm0, xmm0
  00116	66 0f 13 85 9c
	fe ff ff	 movlpd	 QWORD PTR tv135[ebp], xmm0
$LN18@operator:
  0011e	8b 8d 9c fe ff
	ff		 mov	 ecx, DWORD PTR tv135[ebp]
  00124	8b 95 a0 fe ff
	ff		 mov	 edx, DWORD PTR tv135[ebp+4]
  0012a	89 4d c4	 mov	 DWORD PTR __Pad$[ebp], ecx
  0012d	89 55 c8	 mov	 DWORD PTR __Pad$[ebp+4], edx

; 769  :     const typename _Myos::sentry _Ok(_Ostr);

  00130	8b 45 08	 mov	 eax, DWORD PTR __Ostr$[ebp]
  00133	50		 push	 eax
  00134	8d 4d b4	 lea	 ecx, DWORD PTR __Ok$[ebp]
  00137	e8 00 00 00 00	 call	 ??0sentry@?$basic_ostream@DU?$char_traits@D@std@@@std@@QAE@AAV12@@Z ; std::basic_ostream<char,std::char_traits<char> >::sentry::sentry
  0013c	c7 45 fc 00 00
	00 00		 mov	 DWORD PTR __$EHRec$[ebp+12], 0

; 770  : 
; 771  :     if (!_Ok) {

  00143	8d 4d b4	 lea	 ecx, DWORD PTR __Ok$[ebp]
  00146	e8 00 00 00 00	 call	 ??Bsentry@?$basic_ostream@DU?$char_traits@D@std@@@std@@QBE_NXZ ; std::basic_ostream<char,std::char_traits<char> >::sentry::operator bool
  0014b	0f b6 c0	 movzx	 eax, al
  0014e	85 c0		 test	 eax, eax
  00150	75 0e		 jne	 SHORT $LN8@operator

; 772  :         _State |= ios_base::badbit;

  00152	8b 45 e4	 mov	 eax, DWORD PTR __State$[ebp]
  00155	83 c8 04	 or	 eax, 4
  00158	89 45 e4	 mov	 DWORD PTR __State$[ebp], eax

; 773  :     } else { // state okay, insert

  0015b	e9 ba 02 00 00	 jmp	 $LN9@operator
$LN8@operator:

; 774  :         _TRY_IO_BEGIN

  00160	c6 45 fc 01	 mov	 BYTE PTR __$EHRec$[ebp+12], 1

; 775  :         if ((_Ostr.flags() & ios_base::adjustfield) != ios_base::left) {

  00164	8b 45 08	 mov	 eax, DWORD PTR __Ostr$[ebp]
  00167	8b 08		 mov	 ecx, DWORD PTR [eax]
  00169	8b 55 08	 mov	 edx, DWORD PTR __Ostr$[ebp]
  0016c	03 51 04	 add	 edx, DWORD PTR [ecx+4]
  0016f	8b f4		 mov	 esi, esp
  00171	8b ca		 mov	 ecx, edx
  00173	ff 15 00 00 00
	00		 call	 DWORD PTR __imp_?flags@ios_base@std@@QBEHXZ
  00179	3b f4		 cmp	 esi, esp
  0017b	e8 00 00 00 00	 call	 __RTC_CheckEsp
  00180	89 85 b0 fe ff
	ff		 mov	 DWORD PTR tv137[ebp], eax
  00186	8b 85 b0 fe ff
	ff		 mov	 eax, DWORD PTR tv137[ebp]
  0018c	25 c0 01 00 00	 and	 eax, 448		; 000001c0H
  00191	83 f8 40	 cmp	 eax, 64			; 00000040H
  00194	0f 84 d5 00 00
	00		 je	 $LN11@operator

; 776  :             for (; 0 < _Pad; --_Pad) { // pad on left

  0019a	eb 12		 jmp	 SHORT $LN4@operator
$LN2@operator:
  0019c	8b 45 c4	 mov	 eax, DWORD PTR __Pad$[ebp]
  0019f	83 e8 01	 sub	 eax, 1
  001a2	8b 4d c8	 mov	 ecx, DWORD PTR __Pad$[ebp+4]
  001a5	83 d9 00	 sbb	 ecx, 0
  001a8	89 45 c4	 mov	 DWORD PTR __Pad$[ebp], eax
  001ab	89 4d c8	 mov	 DWORD PTR __Pad$[ebp+4], ecx
$LN4@operator:
  001ae	83 7d c8 00	 cmp	 DWORD PTR __Pad$[ebp+4], 0
  001b2	0f 8c b7 00 00
	00		 jl	 $LN11@operator
  001b8	7f 0a		 jg	 SHORT $LN26@operator
  001ba	83 7d c4 00	 cmp	 DWORD PTR __Pad$[ebp], 0
  001be	0f 86 ab 00 00
	00		 jbe	 $LN11@operator
$LN26@operator:

; 777  :                 if (_Traits::eq_int_type(_Traits::eof(), _Ostr.rdbuf()->sputc(_Ostr.fill()))) {

  001c4	8b 45 08	 mov	 eax, DWORD PTR __Ostr$[ebp]
  001c7	8b 08		 mov	 ecx, DWORD PTR [eax]
  001c9	8b 55 08	 mov	 edx, DWORD PTR __Ostr$[ebp]
  001cc	03 51 04	 add	 edx, DWORD PTR [ecx+4]
  001cf	8b f4		 mov	 esi, esp
  001d1	8b ca		 mov	 ecx, edx
  001d3	ff 15 00 00 00
	00		 call	 DWORD PTR __imp_?fill@?$basic_ios@DU?$char_traits@D@std@@@std@@QBEDXZ
  001d9	3b f4		 cmp	 esi, esp
  001db	e8 00 00 00 00	 call	 __RTC_CheckEsp
  001e0	88 85 b3 fe ff
	ff		 mov	 BYTE PTR tv284[ebp], al
  001e6	8b 45 08	 mov	 eax, DWORD PTR __Ostr$[ebp]
  001e9	8b 08		 mov	 ecx, DWORD PTR [eax]
  001eb	8b 55 08	 mov	 edx, DWORD PTR __Ostr$[ebp]
  001ee	03 51 04	 add	 edx, DWORD PTR [ecx+4]
  001f1	8b f4		 mov	 esi, esp
  001f3	8b ca		 mov	 ecx, edx
  001f5	ff 15 00 00 00
	00		 call	 DWORD PTR __imp_?rdbuf@?$basic_ios@DU?$char_traits@D@std@@@std@@QBEPAV?$basic_streambuf@DU?$char_traits@D@std@@@2@XZ
  001fb	3b f4		 cmp	 esi, esp
  001fd	e8 00 00 00 00	 call	 __RTC_CheckEsp
  00202	89 85 ac fe ff
	ff		 mov	 DWORD PTR tv285[ebp], eax
  00208	8b f4		 mov	 esi, esp
  0020a	0f b6 85 b3 fe
	ff ff		 movzx	 eax, BYTE PTR tv284[ebp]
  00211	50		 push	 eax
  00212	8b 8d ac fe ff
	ff		 mov	 ecx, DWORD PTR tv285[ebp]
  00218	ff 15 00 00 00
	00		 call	 DWORD PTR __imp_?sputc@?$basic_streambuf@DU?$char_traits@D@std@@@std@@QAEHD@Z
  0021e	3b f4		 cmp	 esi, esp
  00220	e8 00 00 00 00	 call	 __RTC_CheckEsp
  00225	89 85 a8 fe ff
	ff		 mov	 DWORD PTR tv286[ebp], eax
  0022b	8b 8d a8 fe ff
	ff		 mov	 ecx, DWORD PTR tv286[ebp]
  00231	89 8d e8 fe ff
	ff		 mov	 DWORD PTR $T6[ebp], ecx
  00237	e8 00 00 00 00	 call	 ?eof@?$_Narrow_char_traits@DH@std@@SAHXZ ; std::_Narrow_char_traits<char,int>::eof
  0023c	89 85 dc fe ff
	ff		 mov	 DWORD PTR $T5[ebp], eax
  00242	8d 95 e8 fe ff
	ff		 lea	 edx, DWORD PTR $T6[ebp]
  00248	52		 push	 edx
  00249	8d 85 dc fe ff
	ff		 lea	 eax, DWORD PTR $T5[ebp]
  0024f	50		 push	 eax
  00250	e8 00 00 00 00	 call	 ?eq_int_type@?$_Narrow_char_traits@DH@std@@SA_NABH0@Z ; std::_Narrow_char_traits<char,int>::eq_int_type
  00255	83 c4 08	 add	 esp, 8
  00258	0f b6 c8	 movzx	 ecx, al
  0025b	85 c9		 test	 ecx, ecx
  0025d	74 0b		 je	 SHORT $LN12@operator

; 778  :                     _State |= ios_base::badbit; // insertion failed, quit

  0025f	8b 45 e4	 mov	 eax, DWORD PTR __State$[ebp]
  00262	83 c8 04	 or	 eax, 4
  00265	89 45 e4	 mov	 DWORD PTR __State$[ebp], eax

; 779  :                     break;

  00268	eb 05		 jmp	 SHORT $LN11@operator
$LN12@operator:

; 780  :                 }
; 781  :             }

  0026a	e9 2d ff ff ff	 jmp	 $LN2@operator
$LN11@operator:

; 782  :         }
; 783  : 
; 784  :         if (_State == ios_base::goodbit && _Ostr.rdbuf()->sputn(_Val, _Count) != _Count) {

  0026f	83 7d e4 00	 cmp	 DWORD PTR __State$[ebp], 0
  00273	75 6e		 jne	 SHORT $LN13@operator
  00275	8b 45 08	 mov	 eax, DWORD PTR __Ostr$[ebp]
  00278	8b 08		 mov	 ecx, DWORD PTR [eax]
  0027a	8b 55 08	 mov	 edx, DWORD PTR __Ostr$[ebp]
  0027d	03 51 04	 add	 edx, DWORD PTR [ecx+4]
  00280	8b f4		 mov	 esi, esp
  00282	8b ca		 mov	 ecx, edx
  00284	ff 15 00 00 00
	00		 call	 DWORD PTR __imp_?rdbuf@?$basic_ios@DU?$char_traits@D@std@@@std@@QBEPAV?$basic_streambuf@DU?$char_traits@D@std@@@2@XZ
  0028a	3b f4		 cmp	 esi, esp
  0028c	e8 00 00 00 00	 call	 __RTC_CheckEsp
  00291	89 85 b0 fe ff
	ff		 mov	 DWORD PTR tv287[ebp], eax
  00297	8b f4		 mov	 esi, esp
  00299	8b 45 d8	 mov	 eax, DWORD PTR __Count$[ebp+4]
  0029c	50		 push	 eax
  0029d	8b 4d d4	 mov	 ecx, DWORD PTR __Count$[ebp]
  002a0	51		 push	 ecx
  002a1	8b 55 0c	 mov	 edx, DWORD PTR __Val$[ebp]
  002a4	52		 push	 edx
  002a5	8b 8d b0 fe ff
	ff		 mov	 ecx, DWORD PTR tv287[ebp]
  002ab	ff 15 00 00 00
	00		 call	 DWORD PTR __imp_?sputn@?$basic_streambuf@DU?$char_traits@D@std@@@std@@QAE_JPBD_J@Z
  002b1	3b f4		 cmp	 esi, esp
  002b3	e8 00 00 00 00	 call	 __RTC_CheckEsp
  002b8	89 85 a8 fe ff
	ff		 mov	 DWORD PTR tv288[ebp], eax
  002be	89 95 ac fe ff
	ff		 mov	 DWORD PTR tv288[ebp+4], edx
  002c4	8b 85 a8 fe ff
	ff		 mov	 eax, DWORD PTR tv288[ebp]
  002ca	3b 45 d4	 cmp	 eax, DWORD PTR __Count$[ebp]
  002cd	75 0b		 jne	 SHORT $LN27@operator
  002cf	8b 8d ac fe ff
	ff		 mov	 ecx, DWORD PTR tv288[ebp+4]
  002d5	3b 4d d8	 cmp	 ecx, DWORD PTR __Count$[ebp+4]
  002d8	74 09		 je	 SHORT $LN13@operator
$LN27@operator:

; 785  :             _State |= ios_base::badbit;

  002da	8b 45 e4	 mov	 eax, DWORD PTR __State$[ebp]
  002dd	83 c8 04	 or	 eax, 4
  002e0	89 45 e4	 mov	 DWORD PTR __State$[ebp], eax
$LN13@operator:

; 786  :         }
; 787  : 
; 788  :         if (_State == ios_base::goodbit) {

  002e3	83 7d e4 00	 cmp	 DWORD PTR __State$[ebp], 0
  002e7	0f 85 d5 00 00
	00		 jne	 $LN14@operator

; 789  :             for (; 0 < _Pad; --_Pad) { // pad on right

  002ed	eb 12		 jmp	 SHORT $LN7@operator
$LN5@operator:
  002ef	8b 45 c4	 mov	 eax, DWORD PTR __Pad$[ebp]
  002f2	83 e8 01	 sub	 eax, 1
  002f5	8b 4d c8	 mov	 ecx, DWORD PTR __Pad$[ebp+4]
  002f8	83 d9 00	 sbb	 ecx, 0
  002fb	89 45 c4	 mov	 DWORD PTR __Pad$[ebp], eax
  002fe	89 4d c8	 mov	 DWORD PTR __Pad$[ebp+4], ecx
$LN7@operator:
  00301	83 7d c8 00	 cmp	 DWORD PTR __Pad$[ebp+4], 0
  00305	0f 8c b7 00 00
	00		 jl	 $LN14@operator
  0030b	7f 0a		 jg	 SHORT $LN28@operator
  0030d	83 7d c4 00	 cmp	 DWORD PTR __Pad$[ebp], 0
  00311	0f 86 ab 00 00
	00		 jbe	 $LN14@operator
$LN28@operator:

; 790  :                 if (_Traits::eq_int_type(_Traits::eof(), _Ostr.rdbuf()->sputc(_Ostr.fill()))) {

  00317	8b 45 08	 mov	 eax, DWORD PTR __Ostr$[ebp]
  0031a	8b 08		 mov	 ecx, DWORD PTR [eax]
  0031c	8b 55 08	 mov	 edx, DWORD PTR __Ostr$[ebp]
  0031f	03 51 04	 add	 edx, DWORD PTR [ecx+4]
  00322	8b f4		 mov	 esi, esp
  00324	8b ca		 mov	 ecx, edx
  00326	ff 15 00 00 00
	00		 call	 DWORD PTR __imp_?fill@?$basic_ios@DU?$char_traits@D@std@@@std@@QBEDXZ
  0032c	3b f4		 cmp	 esi, esp
  0032e	e8 00 00 00 00	 call	 __RTC_CheckEsp
  00333	88 85 b3 fe ff
	ff		 mov	 BYTE PTR tv289[ebp], al
  00339	8b 45 08	 mov	 eax, DWORD PTR __Ostr$[ebp]
  0033c	8b 08		 mov	 ecx, DWORD PTR [eax]
  0033e	8b 55 08	 mov	 edx, DWORD PTR __Ostr$[ebp]
  00341	03 51 04	 add	 edx, DWORD PTR [ecx+4]
  00344	8b f4		 mov	 esi, esp
  00346	8b ca		 mov	 ecx, edx
  00348	ff 15 00 00 00
	00		 call	 DWORD PTR __imp_?rdbuf@?$basic_ios@DU?$char_traits@D@std@@@std@@QBEPAV?$basic_streambuf@DU?$char_traits@D@std@@@2@XZ
  0034e	3b f4		 cmp	 esi, esp
  00350	e8 00 00 00 00	 call	 __RTC_CheckEsp
  00355	89 85 ac fe ff
	ff		 mov	 DWORD PTR tv290[ebp], eax
  0035b	8b f4		 mov	 esi, esp
  0035d	0f b6 85 b3 fe
	ff ff		 movzx	 eax, BYTE PTR tv289[ebp]
  00364	50		 push	 eax
  00365	8b 8d ac fe ff
	ff		 mov	 ecx, DWORD PTR tv290[ebp]
  0036b	ff 15 00 00 00
	00		 call	 DWORD PTR __imp_?sputc@?$basic_streambuf@DU?$char_traits@D@std@@@std@@QAEHD@Z
  00371	3b f4		 cmp	 esi, esp
  00373	e8 00 00 00 00	 call	 __RTC_CheckEsp
  00378	89 85 a8 fe ff
	ff		 mov	 DWORD PTR tv291[ebp], eax
  0037e	8b 8d a8 fe ff
	ff		 mov	 ecx, DWORD PTR tv291[ebp]
  00384	89 8d d0 fe ff
	ff		 mov	 DWORD PTR $T4[ebp], ecx
  0038a	e8 00 00 00 00	 call	 ?eof@?$_Narrow_char_traits@DH@std@@SAHXZ ; std::_Narrow_char_traits<char,int>::eof
  0038f	89 85 c4 fe ff
	ff		 mov	 DWORD PTR $T3[ebp], eax
  00395	8d 95 d0 fe ff
	ff		 lea	 edx, DWORD PTR $T4[ebp]
  0039b	52		 push	 edx
  0039c	8d 85 c4 fe ff
	ff		 lea	 eax, DWORD PTR $T3[ebp]
  003a2	50		 push	 eax
  003a3	e8 00 00 00 00	 call	 ?eq_int_type@?$_Narrow_char_traits@DH@std@@SA_NABH0@Z ; std::_Narrow_char_traits<char,int>::eq_int_type
  003a8	83 c4 08	 add	 esp, 8
  003ab	0f b6 c8	 movzx	 ecx, al
  003ae	85 c9		 test	 ecx, ecx
  003b0	74 0b		 je	 SHORT $LN15@operator

; 791  :                     _State |= ios_base::badbit; // insertion failed, quit

  003b2	8b 45 e4	 mov	 eax, DWORD PTR __State$[ebp]
  003b5	83 c8 04	 or	 eax, 4
  003b8	89 45 e4	 mov	 DWORD PTR __State$[ebp], eax

; 792  :                     break;

  003bb	eb 05		 jmp	 SHORT $LN14@operator
$LN15@operator:

; 793  :                 }
; 794  :             }

  003bd	e9 2d ff ff ff	 jmp	 $LN5@operator
$LN14@operator:

; 795  :         }
; 796  : 
; 797  :         _Ostr.width(0);

  003c2	8b f4		 mov	 esi, esp
  003c4	6a 00		 push	 0
  003c6	6a 00		 push	 0
  003c8	8b 45 08	 mov	 eax, DWORD PTR __Ostr$[ebp]
  003cb	8b 08		 mov	 ecx, DWORD PTR [eax]
  003cd	8b 55 08	 mov	 edx, DWORD PTR __Ostr$[ebp]
  003d0	03 51 04	 add	 edx, DWORD PTR [ecx+4]
  003d3	8b ca		 mov	 ecx, edx
  003d5	ff 15 00 00 00
	00		 call	 DWORD PTR __imp_?width@ios_base@std@@QAE_J_J@Z
  003db	3b f4		 cmp	 esi, esp
  003dd	e8 00 00 00 00	 call	 __RTC_CheckEsp
  003e2	eb 26		 jmp	 SHORT $LN19@operator
__catch$??$?6U?$char_traits@D@std@@@std@@YAAAV?$basic_ostream@DU?$char_traits@D@std@@@0@AAV10@PBD@Z$0:

; 798  :         _CATCH_IO_(ios_base, _Ostr)

  003e4	8b f4		 mov	 esi, esp
  003e6	6a 01		 push	 1
  003e8	6a 04		 push	 4
  003ea	8b 45 08	 mov	 eax, DWORD PTR __Ostr$[ebp]
  003ed	8b 08		 mov	 ecx, DWORD PTR [eax]
  003ef	8b 55 08	 mov	 edx, DWORD PTR __Ostr$[ebp]
  003f2	03 51 04	 add	 edx, DWORD PTR [ecx+4]
  003f5	8b ca		 mov	 ecx, edx
  003f7	ff 15 00 00 00
	00		 call	 DWORD PTR __imp_?setstate@?$basic_ios@DU?$char_traits@D@std@@@std@@QAEXH_N@Z
  003fd	3b f4		 cmp	 esi, esp
  003ff	e8 00 00 00 00	 call	 __RTC_CheckEsp
  00404	b8 00 00 00 00	 mov	 eax, $LN23@operator
  00409	c3		 ret	 0
$LN19@operator:
  0040a	c7 45 fc 00 00
	00 00		 mov	 DWORD PTR __$EHRec$[ebp+12], 0
  00411	eb 07		 jmp	 SHORT $LN9@operator
$LN23@operator:
  00413	c7 45 fc 00 00
	00 00		 mov	 DWORD PTR __$EHRec$[ebp+12], 0
$LN9@operator:

; 799  :     }
; 800  : 
; 801  :     _Ostr.setstate(_State);

  0041a	8b f4		 mov	 esi, esp
  0041c	6a 00		 push	 0
  0041e	8b 45 e4	 mov	 eax, DWORD PTR __State$[ebp]
  00421	50		 push	 eax
  00422	8b 4d 08	 mov	 ecx, DWORD PTR __Ostr$[ebp]
  00425	8b 11		 mov	 edx, DWORD PTR [ecx]
  00427	8b 4d 08	 mov	 ecx, DWORD PTR __Ostr$[ebp]
  0042a	03 4a 04	 add	 ecx, DWORD PTR [edx+4]
  0042d	ff 15 00 00 00
	00		 call	 DWORD PTR __imp_?setstate@?$basic_ios@DU?$char_traits@D@std@@@std@@QAEXH_N@Z
  00433	3b f4		 cmp	 esi, esp
  00435	e8 00 00 00 00	 call	 __RTC_CheckEsp

; 802  :     return _Ostr;

  0043a	8b 45 08	 mov	 eax, DWORD PTR __Ostr$[ebp]
  0043d	89 85 b8 fe ff
	ff		 mov	 DWORD PTR $T2[ebp], eax
  00443	c7 45 fc ff ff
	ff ff		 mov	 DWORD PTR __$EHRec$[ebp+12], -1
  0044a	8d 4d b4	 lea	 ecx, DWORD PTR __Ok$[ebp]
  0044d	e8 00 00 00 00	 call	 ??1sentry@?$basic_ostream@DU?$char_traits@D@std@@@std@@QAE@XZ ; std::basic_ostream<char,std::char_traits<char> >::sentry::~sentry
  00452	8b 85 b8 fe ff
	ff		 mov	 eax, DWORD PTR $T2[ebp]

; 803  : }

  00458	52		 push	 edx
  00459	8b cd		 mov	 ecx, ebp
  0045b	50		 push	 eax
  0045c	8d 15 00 00 00
	00		 lea	 edx, DWORD PTR $LN32@operator
  00462	e8 00 00 00 00	 call	 @_RTC_CheckStackVars@8
  00467	58		 pop	 eax
  00468	5a		 pop	 edx
  00469	8b 4d f4	 mov	 ecx, DWORD PTR __$EHRec$[ebp+4]
  0046c	64 89 0d 00 00
	00 00		 mov	 DWORD PTR fs:0, ecx
  00473	59		 pop	 ecx
  00474	5f		 pop	 edi
  00475	5e		 pop	 esi
  00476	5b		 pop	 ebx
  00477	8b 4d ec	 mov	 ecx, DWORD PTR __$ArrayPad$[ebp]
  0047a	33 cd		 xor	 ecx, ebp
  0047c	e8 00 00 00 00	 call	 @__security_check_cookie@4
  00481	81 c4 64 01 00
	00		 add	 esp, 356		; 00000164H
  00487	3b ec		 cmp	 ebp, esp
  00489	e8 00 00 00 00	 call	 __RTC_CheckEsp
  0048e	8b e5		 mov	 esp, ebp
  00490	5d		 pop	 ebp
  00491	c3		 ret	 0
  00492	66 90		 npad	 2
$LN32@operator:
  00494	01 00 00 00	 DD	 1
  00498	00 00 00 00	 DD	 $LN31@operator
$LN31@operator:
  0049c	b4 ff ff ff	 DD	 -76			; ffffffb4H
  004a0	08 00 00 00	 DD	 8
  004a4	00 00 00 00	 DD	 $LN29@operator
$LN29@operator:
  004a8	5f		 DB	 95			; 0000005fH
  004a9	4f		 DB	 79			; 0000004fH
  004aa	6b		 DB	 107			; 0000006bH
  004ab	00		 DB	 0
_TEXT	ENDS
;	COMDAT text$x
text$x	SEGMENT
__unwindfunclet$??$?6U?$char_traits@D@std@@@std@@YAAAV?$basic_ostream@DU?$char_traits@D@std@@@0@AAV10@PBD@Z$2:
  00000	8d 4d b4	 lea	 ecx, DWORD PTR __Ok$[ebp]
  00003	e9 00 00 00 00	 jmp	 ??1sentry@?$basic_ostream@DU?$char_traits@D@std@@@std@@QAE@XZ ; std::basic_ostream<char,std::char_traits<char> >::sentry::~sentry
  00008	cc		 int	 3
  00009	cc		 int	 3
  0000a	cc		 int	 3
  0000b	cc		 int	 3
  0000c	cc		 int	 3
__ehhandler$??$?6U?$char_traits@D@std@@@std@@YAAAV?$basic_ostream@DU?$char_traits@D@std@@@0@AAV10@PBD@Z:
  0000d	90		 npad	 1
  0000e	90		 npad	 1
  0000f	8b 54 24 08	 mov	 edx, DWORD PTR [esp+8]
  00013	8d 42 0c	 lea	 eax, DWORD PTR [edx+12]
  00016	8b 8a 98 fe ff
	ff		 mov	 ecx, DWORD PTR [edx-360]
  0001c	33 c8		 xor	 ecx, eax
  0001e	e8 00 00 00 00	 call	 @__security_check_cookie@4
  00023	8b 4a f8	 mov	 ecx, DWORD PTR [edx-8]
  00026	33 c8		 xor	 ecx, eax
  00028	e8 00 00 00 00	 call	 @__security_check_cookie@4
  0002d	b8 00 00 00 00	 mov	 eax, OFFSET __ehfuncinfo$??$?6U?$char_traits@D@std@@@std@@YAAAV?$basic_ostream@DU?$char_traits@D@std@@@0@AAV10@PBD@Z
  00032	e9 00 00 00 00	 jmp	 ___CxxFrameHandler3
text$x	ENDS
??$?6U?$char_traits@D@std@@@std@@YAAAV?$basic_ostream@DU?$char_traits@D@std@@@0@AAV10@PBD@Z ENDP ; std::operator<<<std::char_traits<char> >
; Function compile flags: /Odtp /RTCsu /ZI
; File D:\User\Desktop\Everythin' for BSTU\Narkevich\All laboratory works\2-ой семестр\решения лбр\LBR_03\LBR_01\Incorrect_Data_yes_or_no.cpp
;	COMDAT ?Incorrect_Data_yes_or_no@@YAHHHHHH@Z
_TEXT	SEGMENT
_month$ = 8						; size = 4
_day$ = 12						; size = 4
_year$ = 16						; size = 4
_data$ = 20						; size = 4
_count$ = 24						; size = 4
?Incorrect_Data_yes_or_no@@YAHHHHHH@Z PROC		; Incorrect_Data_yes_or_no, COMDAT

; 4    : int Incorrect_Data_yes_or_no(int month, int day, int year, int data, int count) {

  00000	55		 push	 ebp
  00001	8b ec		 mov	 ebp, esp
  00003	81 ec c0 00 00
	00		 sub	 esp, 192		; 000000c0H
  00009	53		 push	 ebx
  0000a	56		 push	 esi
  0000b	57		 push	 edi
  0000c	8b fd		 mov	 edi, ebp
  0000e	33 c9		 xor	 ecx, ecx
  00010	b8 cc cc cc cc	 mov	 eax, -858993460		; ccccccccH
  00015	f3 ab		 rep stosd
  00017	b9 00 00 00 00	 mov	 ecx, OFFSET __2ADBDB11_Incorrect_Data_yes_or_no@cpp
  0001c	e8 00 00 00 00	 call	 @__CheckForDebuggerJustMyCode@4

; 5    : 	//проверка правильности написания дней
; 6    : 	if (month == 01 && day > 31) {

  00021	83 7d 08 01	 cmp	 DWORD PTR _month$[ebp], 1
  00025	75 36		 jne	 SHORT $LN4@Incorrect_
  00027	83 7d 0c 1f	 cmp	 DWORD PTR _day$[ebp], 31 ; 0000001fH
  0002b	7e 30		 jle	 SHORT $LN4@Incorrect_

; 7    : 		cout << "Вы ввели слишком большое значение (в январе 31 день)" << endl;

  0002d	8b f4		 mov	 esi, esp
  0002f	68 00 00 00 00	 push	 OFFSET ??$endl@DU?$char_traits@D@std@@@std@@YAAAV?$basic_ostream@DU?$char_traits@D@std@@@0@AAV10@@Z ; std::endl<char,std::char_traits<char> >
  00034	68 00 00 00 00	 push	 OFFSET ??_C@_0DF@NLBOJDFJ@?B?$PL?5?b?b?e?k?h?5?q?k?h?x?j?n?l?5?a?n?k?$PM?x?n?e?5?g?m?$OA?w?e?m@
  00039	a1 00 00 00 00	 mov	 eax, DWORD PTR __imp_?cout@std@@3V?$basic_ostream@DU?$char_traits@D@std@@@1@A
  0003e	50		 push	 eax
  0003f	e8 00 00 00 00	 call	 ??$?6U?$char_traits@D@std@@@std@@YAAAV?$basic_ostream@DU?$char_traits@D@std@@@0@AAV10@PBD@Z ; std::operator<<<std::char_traits<char> >
  00044	83 c4 08	 add	 esp, 8
  00047	8b c8		 mov	 ecx, eax
  00049	ff 15 00 00 00
	00		 call	 DWORD PTR __imp_??6?$basic_ostream@DU?$char_traits@D@std@@@std@@QAEAAV01@P6AAAV01@AAV01@@Z@Z
  0004f	3b f4		 cmp	 esi, esp
  00051	e8 00 00 00 00	 call	 __RTC_CheckEsp

; 8    : 		return 0;

  00056	33 c0		 xor	 eax, eax
  00058	e9 99 03 00 00	 jmp	 $LN20@Incorrect_
$LN4@Incorrect_:

; 9    : 	}
; 10   : 	if (month == 02 && year % 4 != 0 && day > 28) {

  0005d	83 7d 08 02	 cmp	 DWORD PTR _month$[ebp], 2
  00061	75 49		 jne	 SHORT $LN5@Incorrect_
  00063	8b 45 10	 mov	 eax, DWORD PTR _year$[ebp]
  00066	25 03 00 00 80	 and	 eax, -2147483645	; 80000003H
  0006b	79 05		 jns	 SHORT $LN21@Incorrect_
  0006d	48		 dec	 eax
  0006e	83 c8 fc	 or	 eax, -4			; fffffffcH
  00071	40		 inc	 eax
$LN21@Incorrect_:
  00072	85 c0		 test	 eax, eax
  00074	74 36		 je	 SHORT $LN5@Incorrect_
  00076	83 7d 0c 1c	 cmp	 DWORD PTR _day$[ebp], 28 ; 0000001cH
  0007a	7e 30		 jle	 SHORT $LN5@Incorrect_

; 11   : 		cout << "Вы ввели слишком большое значение (в феврале в невисокосном году 28 дней)" << endl;

  0007c	8b f4		 mov	 esi, esp
  0007e	68 00 00 00 00	 push	 OFFSET ??$endl@DU?$char_traits@D@std@@@std@@YAAAV?$basic_ostream@DU?$char_traits@D@std@@@0@AAV10@@Z ; std::endl<char,std::char_traits<char> >
  00083	68 00 00 00 00	 push	 OFFSET ??_C@_0EK@IMLLBPBI@?B?$PL?5?b?b?e?k?h?5?q?k?h?x?j?n?l?5?a?n?k?$PM?x?n?e?5?g?m?$OA?w?e?m@
  00088	a1 00 00 00 00	 mov	 eax, DWORD PTR __imp_?cout@std@@3V?$basic_ostream@DU?$char_traits@D@std@@@1@A
  0008d	50		 push	 eax
  0008e	e8 00 00 00 00	 call	 ??$?6U?$char_traits@D@std@@@std@@YAAAV?$basic_ostream@DU?$char_traits@D@std@@@0@AAV10@PBD@Z ; std::operator<<<std::char_traits<char> >
  00093	83 c4 08	 add	 esp, 8
  00096	8b c8		 mov	 ecx, eax
  00098	ff 15 00 00 00
	00		 call	 DWORD PTR __imp_??6?$basic_ostream@DU?$char_traits@D@std@@@std@@QAEAAV01@P6AAAV01@AAV01@@Z@Z
  0009e	3b f4		 cmp	 esi, esp
  000a0	e8 00 00 00 00	 call	 __RTC_CheckEsp

; 12   : 		return 0;

  000a5	33 c0		 xor	 eax, eax
  000a7	e9 4a 03 00 00	 jmp	 $LN20@Incorrect_
$LN5@Incorrect_:

; 13   : 	}
; 14   : 	if (month == 02 && year % 4 == 0 && day > 29) {

  000ac	83 7d 08 02	 cmp	 DWORD PTR _month$[ebp], 2
  000b0	75 49		 jne	 SHORT $LN6@Incorrect_
  000b2	8b 45 10	 mov	 eax, DWORD PTR _year$[ebp]
  000b5	25 03 00 00 80	 and	 eax, -2147483645	; 80000003H
  000ba	79 05		 jns	 SHORT $LN22@Incorrect_
  000bc	48		 dec	 eax
  000bd	83 c8 fc	 or	 eax, -4			; fffffffcH
  000c0	40		 inc	 eax
$LN22@Incorrect_:
  000c1	85 c0		 test	 eax, eax
  000c3	75 36		 jne	 SHORT $LN6@Incorrect_
  000c5	83 7d 0c 1d	 cmp	 DWORD PTR _day$[ebp], 29 ; 0000001dH
  000c9	7e 30		 jle	 SHORT $LN6@Incorrect_

; 15   : 		cout << "Вы ввели слишком большое значение (в феврале в високосном году 29 дней)" << endl;

  000cb	8b f4		 mov	 esi, esp
  000cd	68 00 00 00 00	 push	 OFFSET ??$endl@DU?$char_traits@D@std@@@std@@YAAAV?$basic_ostream@DU?$char_traits@D@std@@@0@AAV10@@Z ; std::endl<char,std::char_traits<char> >
  000d2	68 00 00 00 00	 push	 OFFSET ??_C@_0EI@KLKDCIPD@?B?$PL?5?b?b?e?k?h?5?q?k?h?x?j?n?l?5?a?n?k?$PM?x?n?e?5?g?m?$OA?w?e?m@
  000d7	a1 00 00 00 00	 mov	 eax, DWORD PTR __imp_?cout@std@@3V?$basic_ostream@DU?$char_traits@D@std@@@1@A
  000dc	50		 push	 eax
  000dd	e8 00 00 00 00	 call	 ??$?6U?$char_traits@D@std@@@std@@YAAAV?$basic_ostream@DU?$char_traits@D@std@@@0@AAV10@PBD@Z ; std::operator<<<std::char_traits<char> >
  000e2	83 c4 08	 add	 esp, 8
  000e5	8b c8		 mov	 ecx, eax
  000e7	ff 15 00 00 00
	00		 call	 DWORD PTR __imp_??6?$basic_ostream@DU?$char_traits@D@std@@@std@@QAEAAV01@P6AAAV01@AAV01@@Z@Z
  000ed	3b f4		 cmp	 esi, esp
  000ef	e8 00 00 00 00	 call	 __RTC_CheckEsp

; 16   : 		return 0;

  000f4	33 c0		 xor	 eax, eax
  000f6	e9 fb 02 00 00	 jmp	 $LN20@Incorrect_
$LN6@Incorrect_:

; 17   : 	}
; 18   : 	if (month == 03 && day > 31) {

  000fb	83 7d 08 03	 cmp	 DWORD PTR _month$[ebp], 3
  000ff	75 36		 jne	 SHORT $LN7@Incorrect_
  00101	83 7d 0c 1f	 cmp	 DWORD PTR _day$[ebp], 31 ; 0000001fH
  00105	7e 30		 jle	 SHORT $LN7@Incorrect_

; 19   : 		cout << "Вы ввели слишком большое значение (в марте 31 день)" << endl;

  00107	8b f4		 mov	 esi, esp
  00109	68 00 00 00 00	 push	 OFFSET ??$endl@DU?$char_traits@D@std@@@std@@YAAAV?$basic_ostream@DU?$char_traits@D@std@@@0@AAV10@@Z ; std::endl<char,std::char_traits<char> >
  0010e	68 00 00 00 00	 push	 OFFSET ??_C@_0DE@PFIFBEOG@?B?$PL?5?b?b?e?k?h?5?q?k?h?x?j?n?l?5?a?n?k?$PM?x?n?e?5?g?m?$OA?w?e?m@
  00113	a1 00 00 00 00	 mov	 eax, DWORD PTR __imp_?cout@std@@3V?$basic_ostream@DU?$char_traits@D@std@@@1@A
  00118	50		 push	 eax
  00119	e8 00 00 00 00	 call	 ??$?6U?$char_traits@D@std@@@std@@YAAAV?$basic_ostream@DU?$char_traits@D@std@@@0@AAV10@PBD@Z ; std::operator<<<std::char_traits<char> >
  0011e	83 c4 08	 add	 esp, 8
  00121	8b c8		 mov	 ecx, eax
  00123	ff 15 00 00 00
	00		 call	 DWORD PTR __imp_??6?$basic_ostream@DU?$char_traits@D@std@@@std@@QAEAAV01@P6AAAV01@AAV01@@Z@Z
  00129	3b f4		 cmp	 esi, esp
  0012b	e8 00 00 00 00	 call	 __RTC_CheckEsp

; 20   : 		return 0;

  00130	33 c0		 xor	 eax, eax
  00132	e9 bf 02 00 00	 jmp	 $LN20@Incorrect_
$LN7@Incorrect_:

; 21   : 	}
; 22   : 	if (month == 04 && day > 30) {

  00137	83 7d 08 04	 cmp	 DWORD PTR _month$[ebp], 4
  0013b	75 36		 jne	 SHORT $LN8@Incorrect_
  0013d	83 7d 0c 1e	 cmp	 DWORD PTR _day$[ebp], 30 ; 0000001eH
  00141	7e 30		 jle	 SHORT $LN8@Incorrect_

; 23   : 		cout << "Вы ввели слишком большое значение (в апреле 30 дней)" << endl;

  00143	8b f4		 mov	 esi, esp
  00145	68 00 00 00 00	 push	 OFFSET ??$endl@DU?$char_traits@D@std@@@std@@YAAAV?$basic_ostream@DU?$char_traits@D@std@@@0@AAV10@@Z ; std::endl<char,std::char_traits<char> >
  0014a	68 00 00 00 00	 push	 OFFSET ??_C@_0DF@NPKPHLGH@?B?$PL?5?b?b?e?k?h?5?q?k?h?x?j?n?l?5?a?n?k?$PM?x?n?e?5?g?m?$OA?w?e?m@
  0014f	a1 00 00 00 00	 mov	 eax, DWORD PTR __imp_?cout@std@@3V?$basic_ostream@DU?$char_traits@D@std@@@1@A
  00154	50		 push	 eax
  00155	e8 00 00 00 00	 call	 ??$?6U?$char_traits@D@std@@@std@@YAAAV?$basic_ostream@DU?$char_traits@D@std@@@0@AAV10@PBD@Z ; std::operator<<<std::char_traits<char> >
  0015a	83 c4 08	 add	 esp, 8
  0015d	8b c8		 mov	 ecx, eax
  0015f	ff 15 00 00 00
	00		 call	 DWORD PTR __imp_??6?$basic_ostream@DU?$char_traits@D@std@@@std@@QAEAAV01@P6AAAV01@AAV01@@Z@Z
  00165	3b f4		 cmp	 esi, esp
  00167	e8 00 00 00 00	 call	 __RTC_CheckEsp

; 24   : 		return 0;

  0016c	33 c0		 xor	 eax, eax
  0016e	e9 83 02 00 00	 jmp	 $LN20@Incorrect_
$LN8@Incorrect_:

; 25   : 	}
; 26   : 	if (month == 05 && day > 31) {

  00173	83 7d 08 05	 cmp	 DWORD PTR _month$[ebp], 5
  00177	75 36		 jne	 SHORT $LN9@Incorrect_
  00179	83 7d 0c 1f	 cmp	 DWORD PTR _day$[ebp], 31 ; 0000001fH
  0017d	7e 30		 jle	 SHORT $LN9@Incorrect_

; 27   : 		cout << "Вы ввели слишком большое значение (в мае 31 день)" << endl;

  0017f	8b f4		 mov	 esi, esp
  00181	68 00 00 00 00	 push	 OFFSET ??$endl@DU?$char_traits@D@std@@@std@@YAAAV?$basic_ostream@DU?$char_traits@D@std@@@0@AAV10@@Z ; std::endl<char,std::char_traits<char> >
  00186	68 00 00 00 00	 push	 OFFSET ??_C@_0DC@KGGDJCKF@?B?$PL?5?b?b?e?k?h?5?q?k?h?x?j?n?l?5?a?n?k?$PM?x?n?e?5?g?m?$OA?w?e?m@
  0018b	a1 00 00 00 00	 mov	 eax, DWORD PTR __imp_?cout@std@@3V?$basic_ostream@DU?$char_traits@D@std@@@1@A
  00190	50		 push	 eax
  00191	e8 00 00 00 00	 call	 ??$?6U?$char_traits@D@std@@@std@@YAAAV?$basic_ostream@DU?$char_traits@D@std@@@0@AAV10@PBD@Z ; std::operator<<<std::char_traits<char> >
  00196	83 c4 08	 add	 esp, 8
  00199	8b c8		 mov	 ecx, eax
  0019b	ff 15 00 00 00
	00		 call	 DWORD PTR __imp_??6?$basic_ostream@DU?$char_traits@D@std@@@std@@QAEAAV01@P6AAAV01@AAV01@@Z@Z
  001a1	3b f4		 cmp	 esi, esp
  001a3	e8 00 00 00 00	 call	 __RTC_CheckEsp

; 28   : 		return 0;

  001a8	33 c0		 xor	 eax, eax
  001aa	e9 47 02 00 00	 jmp	 $LN20@Incorrect_
$LN9@Incorrect_:

; 29   : 	}
; 30   : 	if (month == 06 && day > 30) {

  001af	83 7d 08 06	 cmp	 DWORD PTR _month$[ebp], 6
  001b3	75 36		 jne	 SHORT $LN10@Incorrect_
  001b5	83 7d 0c 1e	 cmp	 DWORD PTR _day$[ebp], 30 ; 0000001eH
  001b9	7e 30		 jle	 SHORT $LN10@Incorrect_

; 31   : 		cout << "Вы ввели слишком большое значение (в июне 30 дней)" << endl;

  001bb	8b f4		 mov	 esi, esp
  001bd	68 00 00 00 00	 push	 OFFSET ??$endl@DU?$char_traits@D@std@@@std@@YAAAV?$basic_ostream@DU?$char_traits@D@std@@@0@AAV10@@Z ; std::endl<char,std::char_traits<char> >
  001c2	68 00 00 00 00	 push	 OFFSET ??_C@_0DD@LCIHLNIN@?B?$PL?5?b?b?e?k?h?5?q?k?h?x?j?n?l?5?a?n?k?$PM?x?n?e?5?g?m?$OA?w?e?m@
  001c7	a1 00 00 00 00	 mov	 eax, DWORD PTR __imp_?cout@std@@3V?$basic_ostream@DU?$char_traits@D@std@@@1@A
  001cc	50		 push	 eax
  001cd	e8 00 00 00 00	 call	 ??$?6U?$char_traits@D@std@@@std@@YAAAV?$basic_ostream@DU?$char_traits@D@std@@@0@AAV10@PBD@Z ; std::operator<<<std::char_traits<char> >
  001d2	83 c4 08	 add	 esp, 8
  001d5	8b c8		 mov	 ecx, eax
  001d7	ff 15 00 00 00
	00		 call	 DWORD PTR __imp_??6?$basic_ostream@DU?$char_traits@D@std@@@std@@QAEAAV01@P6AAAV01@AAV01@@Z@Z
  001dd	3b f4		 cmp	 esi, esp
  001df	e8 00 00 00 00	 call	 __RTC_CheckEsp

; 32   : 		return 0;

  001e4	33 c0		 xor	 eax, eax
  001e6	e9 0b 02 00 00	 jmp	 $LN20@Incorrect_
$LN10@Incorrect_:

; 33   : 	}
; 34   : 	if (month == 07 && day > 31) {

  001eb	83 7d 08 07	 cmp	 DWORD PTR _month$[ebp], 7
  001ef	75 36		 jne	 SHORT $LN11@Incorrect_
  001f1	83 7d 0c 1f	 cmp	 DWORD PTR _day$[ebp], 31 ; 0000001fH
  001f5	7e 30		 jle	 SHORT $LN11@Incorrect_

; 35   : 		cout << "Вы ввели слишком большое значение (в июле 31 день)" << endl;

  001f7	8b f4		 mov	 esi, esp
  001f9	68 00 00 00 00	 push	 OFFSET ??$endl@DU?$char_traits@D@std@@@std@@YAAAV?$basic_ostream@DU?$char_traits@D@std@@@0@AAV10@@Z ; std::endl<char,std::char_traits<char> >
  001fe	68 00 00 00 00	 push	 OFFSET ??_C@_0DD@HODJBKEG@?B?$PL?5?b?b?e?k?h?5?q?k?h?x?j?n?l?5?a?n?k?$PM?x?n?e?5?g?m?$OA?w?e?m@
  00203	a1 00 00 00 00	 mov	 eax, DWORD PTR __imp_?cout@std@@3V?$basic_ostream@DU?$char_traits@D@std@@@1@A
  00208	50		 push	 eax
  00209	e8 00 00 00 00	 call	 ??$?6U?$char_traits@D@std@@@std@@YAAAV?$basic_ostream@DU?$char_traits@D@std@@@0@AAV10@PBD@Z ; std::operator<<<std::char_traits<char> >
  0020e	83 c4 08	 add	 esp, 8
  00211	8b c8		 mov	 ecx, eax
  00213	ff 15 00 00 00
	00		 call	 DWORD PTR __imp_??6?$basic_ostream@DU?$char_traits@D@std@@@std@@QAEAAV01@P6AAAV01@AAV01@@Z@Z
  00219	3b f4		 cmp	 esi, esp
  0021b	e8 00 00 00 00	 call	 __RTC_CheckEsp

; 36   : 		return 0;

  00220	33 c0		 xor	 eax, eax
  00222	e9 cf 01 00 00	 jmp	 $LN20@Incorrect_
$LN11@Incorrect_:

; 37   : 	}
; 38   : 	if (month == 8 && day > 31) {

  00227	83 7d 08 08	 cmp	 DWORD PTR _month$[ebp], 8
  0022b	75 36		 jne	 SHORT $LN12@Incorrect_
  0022d	83 7d 0c 1f	 cmp	 DWORD PTR _day$[ebp], 31 ; 0000001fH
  00231	7e 30		 jle	 SHORT $LN12@Incorrect_

; 39   : 		cout << "Вы ввели слишком большое значение (в августе 31 день)" << endl;

  00233	8b f4		 mov	 esi, esp
  00235	68 00 00 00 00	 push	 OFFSET ??$endl@DU?$char_traits@D@std@@@std@@YAAAV?$basic_ostream@DU?$char_traits@D@std@@@0@AAV10@@Z ; std::endl<char,std::char_traits<char> >
  0023a	68 00 00 00 00	 push	 OFFSET ??_C@_0DG@CNDEPNCE@?B?$PL?5?b?b?e?k?h?5?q?k?h?x?j?n?l?5?a?n?k?$PM?x?n?e?5?g?m?$OA?w?e?m@
  0023f	a1 00 00 00 00	 mov	 eax, DWORD PTR __imp_?cout@std@@3V?$basic_ostream@DU?$char_traits@D@std@@@1@A
  00244	50		 push	 eax
  00245	e8 00 00 00 00	 call	 ??$?6U?$char_traits@D@std@@@std@@YAAAV?$basic_ostream@DU?$char_traits@D@std@@@0@AAV10@PBD@Z ; std::operator<<<std::char_traits<char> >
  0024a	83 c4 08	 add	 esp, 8
  0024d	8b c8		 mov	 ecx, eax
  0024f	ff 15 00 00 00
	00		 call	 DWORD PTR __imp_??6?$basic_ostream@DU?$char_traits@D@std@@@std@@QAEAAV01@P6AAAV01@AAV01@@Z@Z
  00255	3b f4		 cmp	 esi, esp
  00257	e8 00 00 00 00	 call	 __RTC_CheckEsp

; 40   : 		return 0;

  0025c	33 c0		 xor	 eax, eax
  0025e	e9 93 01 00 00	 jmp	 $LN20@Incorrect_
$LN12@Incorrect_:

; 41   : 	}
; 42   : 	if (month == 9 && day > 30) {

  00263	83 7d 08 09	 cmp	 DWORD PTR _month$[ebp], 9
  00267	75 36		 jne	 SHORT $LN13@Incorrect_
  00269	83 7d 0c 1e	 cmp	 DWORD PTR _day$[ebp], 30 ; 0000001eH
  0026d	7e 30		 jle	 SHORT $LN13@Incorrect_

; 43   : 		cout << "Вы ввели слишком большое значение (в сентябре 30 дней)" << endl;

  0026f	8b f4		 mov	 esi, esp
  00271	68 00 00 00 00	 push	 OFFSET ??$endl@DU?$char_traits@D@std@@@std@@YAAAV?$basic_ostream@DU?$char_traits@D@std@@@0@AAV10@@Z ; std::endl<char,std::char_traits<char> >
  00276	68 00 00 00 00	 push	 OFFSET ??_C@_0DH@FHAFLEFC@?B?$PL?5?b?b?e?k?h?5?q?k?h?x?j?n?l?5?a?n?k?$PM?x?n?e?5?g?m?$OA?w?e?m@
  0027b	a1 00 00 00 00	 mov	 eax, DWORD PTR __imp_?cout@std@@3V?$basic_ostream@DU?$char_traits@D@std@@@1@A
  00280	50		 push	 eax
  00281	e8 00 00 00 00	 call	 ??$?6U?$char_traits@D@std@@@std@@YAAAV?$basic_ostream@DU?$char_traits@D@std@@@0@AAV10@PBD@Z ; std::operator<<<std::char_traits<char> >
  00286	83 c4 08	 add	 esp, 8
  00289	8b c8		 mov	 ecx, eax
  0028b	ff 15 00 00 00
	00		 call	 DWORD PTR __imp_??6?$basic_ostream@DU?$char_traits@D@std@@@std@@QAEAAV01@P6AAAV01@AAV01@@Z@Z
  00291	3b f4		 cmp	 esi, esp
  00293	e8 00 00 00 00	 call	 __RTC_CheckEsp

; 44   : 		return 0;

  00298	33 c0		 xor	 eax, eax
  0029a	e9 57 01 00 00	 jmp	 $LN20@Incorrect_
$LN13@Incorrect_:

; 45   : 	}
; 46   : 	if (month == 10 && day > 31) {

  0029f	83 7d 08 0a	 cmp	 DWORD PTR _month$[ebp], 10 ; 0000000aH
  002a3	75 36		 jne	 SHORT $LN14@Incorrect_
  002a5	83 7d 0c 1f	 cmp	 DWORD PTR _day$[ebp], 31 ; 0000001fH
  002a9	7e 30		 jle	 SHORT $LN14@Incorrect_

; 47   : 		cout << "Вы ввели слишком большое значение (в октябре 31 день)" << endl;

  002ab	8b f4		 mov	 esi, esp
  002ad	68 00 00 00 00	 push	 OFFSET ??$endl@DU?$char_traits@D@std@@@std@@YAAAV?$basic_ostream@DU?$char_traits@D@std@@@0@AAV10@@Z ; std::endl<char,std::char_traits<char> >
  002b2	68 00 00 00 00	 push	 OFFSET ??_C@_0DG@JAFDHHDC@?B?$PL?5?b?b?e?k?h?5?q?k?h?x?j?n?l?5?a?n?k?$PM?x?n?e?5?g?m?$OA?w?e?m@
  002b7	a1 00 00 00 00	 mov	 eax, DWORD PTR __imp_?cout@std@@3V?$basic_ostream@DU?$char_traits@D@std@@@1@A
  002bc	50		 push	 eax
  002bd	e8 00 00 00 00	 call	 ??$?6U?$char_traits@D@std@@@std@@YAAAV?$basic_ostream@DU?$char_traits@D@std@@@0@AAV10@PBD@Z ; std::operator<<<std::char_traits<char> >
  002c2	83 c4 08	 add	 esp, 8
  002c5	8b c8		 mov	 ecx, eax
  002c7	ff 15 00 00 00
	00		 call	 DWORD PTR __imp_??6?$basic_ostream@DU?$char_traits@D@std@@@std@@QAEAAV01@P6AAAV01@AAV01@@Z@Z
  002cd	3b f4		 cmp	 esi, esp
  002cf	e8 00 00 00 00	 call	 __RTC_CheckEsp

; 48   : 		return 0;

  002d4	33 c0		 xor	 eax, eax
  002d6	e9 1b 01 00 00	 jmp	 $LN20@Incorrect_
$LN14@Incorrect_:

; 49   : 	}
; 50   : 	if (month == 11 && day > 30) {

  002db	83 7d 08 0b	 cmp	 DWORD PTR _month$[ebp], 11 ; 0000000bH
  002df	75 36		 jne	 SHORT $LN15@Incorrect_
  002e1	83 7d 0c 1e	 cmp	 DWORD PTR _day$[ebp], 30 ; 0000001eH
  002e5	7e 30		 jle	 SHORT $LN15@Incorrect_

; 51   : 		cout << "Вы ввели слишком большое значение (в ноябре 30 дней)" << endl;

  002e7	8b f4		 mov	 esi, esp
  002e9	68 00 00 00 00	 push	 OFFSET ??$endl@DU?$char_traits@D@std@@@std@@YAAAV?$basic_ostream@DU?$char_traits@D@std@@@0@AAV10@@Z ; std::endl<char,std::char_traits<char> >
  002ee	68 00 00 00 00	 push	 OFFSET ??_C@_0DF@IELJHFEE@?B?$PL?5?b?b?e?k?h?5?q?k?h?x?j?n?l?5?a?n?k?$PM?x?n?e?5?g?m?$OA?w?e?m@
  002f3	a1 00 00 00 00	 mov	 eax, DWORD PTR __imp_?cout@std@@3V?$basic_ostream@DU?$char_traits@D@std@@@1@A
  002f8	50		 push	 eax
  002f9	e8 00 00 00 00	 call	 ??$?6U?$char_traits@D@std@@@std@@YAAAV?$basic_ostream@DU?$char_traits@D@std@@@0@AAV10@PBD@Z ; std::operator<<<std::char_traits<char> >
  002fe	83 c4 08	 add	 esp, 8
  00301	8b c8		 mov	 ecx, eax
  00303	ff 15 00 00 00
	00		 call	 DWORD PTR __imp_??6?$basic_ostream@DU?$char_traits@D@std@@@std@@QAEAAV01@P6AAAV01@AAV01@@Z@Z
  00309	3b f4		 cmp	 esi, esp
  0030b	e8 00 00 00 00	 call	 __RTC_CheckEsp

; 52   : 		return 0;

  00310	33 c0		 xor	 eax, eax
  00312	e9 df 00 00 00	 jmp	 $LN20@Incorrect_
$LN15@Incorrect_:

; 53   : 	}
; 54   : 	if (month == 12 && day > 31) {

  00317	83 7d 08 0c	 cmp	 DWORD PTR _month$[ebp], 12 ; 0000000cH
  0031b	75 36		 jne	 SHORT $LN2@Incorrect_
  0031d	83 7d 0c 1f	 cmp	 DWORD PTR _day$[ebp], 31 ; 0000001fH
  00321	7e 30		 jle	 SHORT $LN2@Incorrect_

; 55   : 		cout << "Вы ввели слишком большое значение (в декабре 31 день)" << endl;

  00323	8b f4		 mov	 esi, esp
  00325	68 00 00 00 00	 push	 OFFSET ??$endl@DU?$char_traits@D@std@@@std@@YAAAV?$basic_ostream@DU?$char_traits@D@std@@@0@AAV10@@Z ; std::endl<char,std::char_traits<char> >
  0032a	68 00 00 00 00	 push	 OFFSET ??_C@_0DG@JHFIBEAD@?B?$PL?5?b?b?e?k?h?5?q?k?h?x?j?n?l?5?a?n?k?$PM?x?n?e?5?g?m?$OA?w?e?m@
  0032f	a1 00 00 00 00	 mov	 eax, DWORD PTR __imp_?cout@std@@3V?$basic_ostream@DU?$char_traits@D@std@@@1@A
  00334	50		 push	 eax
  00335	e8 00 00 00 00	 call	 ??$?6U?$char_traits@D@std@@@std@@YAAAV?$basic_ostream@DU?$char_traits@D@std@@@0@AAV10@PBD@Z ; std::operator<<<std::char_traits<char> >
  0033a	83 c4 08	 add	 esp, 8
  0033d	8b c8		 mov	 ecx, eax
  0033f	ff 15 00 00 00
	00		 call	 DWORD PTR __imp_??6?$basic_ostream@DU?$char_traits@D@std@@@std@@QAEAAV01@P6AAAV01@AAV01@@Z@Z
  00345	3b f4		 cmp	 esi, esp
  00347	e8 00 00 00 00	 call	 __RTC_CheckEsp

; 56   : 		return 0;

  0034c	33 c0		 xor	 eax, eax
  0034e	e9 a3 00 00 00	 jmp	 $LN20@Incorrect_
$LN2@Incorrect_:

; 57   : 	}
; 58   : 
; 59   : 	//проверка кол-ва цифр (их должно быть 8)
; 60   : 	while (data > 0) {

  00353	83 7d 14 00	 cmp	 DWORD PTR _data$[ebp], 0
  00357	7e 19		 jle	 SHORT $LN3@Incorrect_

; 61   : 		data /= 10; // /= значит разделить переменную на значение и ответ присвоить этой же переменной

  00359	8b 45 14	 mov	 eax, DWORD PTR _data$[ebp]
  0035c	99		 cdq
  0035d	b9 0a 00 00 00	 mov	 ecx, 10			; 0000000aH
  00362	f7 f9		 idiv	 ecx
  00364	89 45 14	 mov	 DWORD PTR _data$[ebp], eax

; 62   : 		count++;

  00367	8b 45 18	 mov	 eax, DWORD PTR _count$[ebp]
  0036a	83 c0 01	 add	 eax, 1
  0036d	89 45 18	 mov	 DWORD PTR _count$[ebp], eax

; 63   : 	}

  00370	eb e1		 jmp	 SHORT $LN2@Incorrect_
$LN3@Incorrect_:

; 64   : 	if (count < 7 && count > 8) {

  00372	83 7d 18 07	 cmp	 DWORD PTR _count$[ebp], 7
  00376	7d 2a		 jge	 SHORT $LN17@Incorrect_
  00378	83 7d 18 08	 cmp	 DWORD PTR _count$[ebp], 8
  0037c	7e 24		 jle	 SHORT $LN17@Incorrect_

; 65   : 		cout << "Неверное количество данных или в дату введенна цифра";

  0037e	68 00 00 00 00	 push	 OFFSET ??_C@_0DF@GBNBKAPK@?M?e?b?e?p?m?n?e?5?j?n?k?h?w?e?q?r?b?n?5?d?$OA?m?m?$PL?u?5?h?k?h?5@
  00383	a1 00 00 00 00	 mov	 eax, DWORD PTR __imp_?cout@std@@3V?$basic_ostream@DU?$char_traits@D@std@@@1@A
  00388	50		 push	 eax
  00389	e8 00 00 00 00	 call	 ??$?6U?$char_traits@D@std@@@std@@YAAAV?$basic_ostream@DU?$char_traits@D@std@@@0@AAV10@PBD@Z ; std::operator<<<std::char_traits<char> >
  0038e	83 c4 08	 add	 esp, 8

; 66   : 		exit(0);

  00391	8b f4		 mov	 esi, esp
  00393	6a 00		 push	 0
  00395	ff 15 00 00 00
	00		 call	 DWORD PTR __imp__exit
  0039b	3b f4		 cmp	 esi, esp
  0039d	e8 00 00 00 00	 call	 __RTC_CheckEsp
$LN17@Incorrect_:

; 67   : 	}
; 68   : 	//Тут определяем правильно ли введен месяц
; 69   : 
; 70   : 	if (month > 12) {

  003a2	83 7d 08 0c	 cmp	 DWORD PTR _month$[ebp], 12 ; 0000000cH
  003a6	7e 24		 jle	 SHORT $LN18@Incorrect_

; 71   : 		cout << "Неверный формат месяца, а именно:месяц больше 12";

  003a8	68 00 00 00 00	 push	 OFFSET ??_C@_0DB@CEJLHCGC@?M?e?b?e?p?m?$PL?i?5?t?n?p?l?$OA?r?5?l?e?q?$PP?v?$OA?0?5?$OA?5?h?l?e?m?m@
  003ad	a1 00 00 00 00	 mov	 eax, DWORD PTR __imp_?cout@std@@3V?$basic_ostream@DU?$char_traits@D@std@@@1@A
  003b2	50		 push	 eax
  003b3	e8 00 00 00 00	 call	 ??$?6U?$char_traits@D@std@@@std@@YAAAV?$basic_ostream@DU?$char_traits@D@std@@@0@AAV10@PBD@Z ; std::operator<<<std::char_traits<char> >
  003b8	83 c4 08	 add	 esp, 8

; 72   : 		exit(0);

  003bb	8b f4		 mov	 esi, esp
  003bd	6a 00		 push	 0
  003bf	ff 15 00 00 00
	00		 call	 DWORD PTR __imp__exit
  003c5	3b f4		 cmp	 esi, esp
  003c7	e8 00 00 00 00	 call	 __RTC_CheckEsp
$LN18@Incorrect_:

; 73   : 	}
; 74   : 	if (month < 1) {

  003cc	83 7d 08 01	 cmp	 DWORD PTR _month$[ebp], 1
  003d0	7d 24		 jge	 SHORT $LN20@Incorrect_

; 75   : 		cout << "Неверный формат месяца, а именно:месяц меньше 1";

  003d2	68 00 00 00 00	 push	 OFFSET ??_C@_0DA@CIPDFLEI@?M?e?b?e?p?m?$PL?i?5?t?n?p?l?$OA?r?5?l?e?q?$PP?v?$OA?0?5?$OA?5?h?l?e?m?m@
  003d7	a1 00 00 00 00	 mov	 eax, DWORD PTR __imp_?cout@std@@3V?$basic_ostream@DU?$char_traits@D@std@@@1@A
  003dc	50		 push	 eax
  003dd	e8 00 00 00 00	 call	 ??$?6U?$char_traits@D@std@@@std@@YAAAV?$basic_ostream@DU?$char_traits@D@std@@@0@AAV10@PBD@Z ; std::operator<<<std::char_traits<char> >
  003e2	83 c4 08	 add	 esp, 8

; 76   : 		exit(0);

  003e5	8b f4		 mov	 esi, esp
  003e7	6a 00		 push	 0
  003e9	ff 15 00 00 00
	00		 call	 DWORD PTR __imp__exit
  003ef	3b f4		 cmp	 esi, esp
  003f1	e8 00 00 00 00	 call	 __RTC_CheckEsp
$LN20@Incorrect_:

; 77   : 	}
; 78   : }

  003f6	5f		 pop	 edi
  003f7	5e		 pop	 esi
  003f8	5b		 pop	 ebx
  003f9	81 c4 c0 00 00
	00		 add	 esp, 192		; 000000c0H
  003ff	3b ec		 cmp	 ebp, esp
  00401	e8 00 00 00 00	 call	 __RTC_CheckEsp
  00406	8b e5		 mov	 esp, ebp
  00408	5d		 pop	 ebp
  00409	c3		 ret	 0
?Incorrect_Data_yes_or_no@@YAHHHHHH@Z ENDP		; Incorrect_Data_yes_or_no
_TEXT	ENDS
; Function compile flags: /Odtp /RTCsu /ZI
; File C:\Program Files\Microsoft Visual Studio\2022\Community\VC\Tools\MSVC\14.34.31933\include\xstring
;	COMDAT ?eof@?$_Narrow_char_traits@DH@std@@SAHXZ
_TEXT	SEGMENT
?eof@?$_Narrow_char_traits@DH@std@@SAHXZ PROC		; std::_Narrow_char_traits<char,int>::eof, COMDAT

; 488  :     _NODISCARD static constexpr int_type eof() noexcept {

  00000	55		 push	 ebp
  00001	8b ec		 mov	 ebp, esp
  00003	81 ec c0 00 00
	00		 sub	 esp, 192		; 000000c0H
  00009	53		 push	 ebx
  0000a	56		 push	 esi
  0000b	57		 push	 edi
  0000c	8b fd		 mov	 edi, ebp
  0000e	33 c9		 xor	 ecx, ecx
  00010	b8 cc cc cc cc	 mov	 eax, -858993460		; ccccccccH
  00015	f3 ab		 rep stosd
  00017	b9 00 00 00 00	 mov	 ecx, OFFSET __B71DB0E4_xstring
  0001c	e8 00 00 00 00	 call	 @__CheckForDebuggerJustMyCode@4

; 489  :         return static_cast<int_type>(EOF);

  00021	83 c8 ff	 or	 eax, -1

; 490  :     }

  00024	5f		 pop	 edi
  00025	5e		 pop	 esi
  00026	5b		 pop	 ebx
  00027	81 c4 c0 00 00
	00		 add	 esp, 192		; 000000c0H
  0002d	3b ec		 cmp	 ebp, esp
  0002f	e8 00 00 00 00	 call	 __RTC_CheckEsp
  00034	8b e5		 mov	 esp, ebp
  00036	5d		 pop	 ebp
  00037	c3		 ret	 0
?eof@?$_Narrow_char_traits@DH@std@@SAHXZ ENDP		; std::_Narrow_char_traits<char,int>::eof
_TEXT	ENDS
; Function compile flags: /Odtp /RTCsu /ZI
; File C:\Program Files\Microsoft Visual Studio\2022\Community\VC\Tools\MSVC\14.34.31933\include\xstring
;	COMDAT ?eq_int_type@?$_Narrow_char_traits@DH@std@@SA_NABH0@Z
_TEXT	SEGMENT
tv65 = -196						; size = 4
__Left$ = 8						; size = 4
__Right$ = 12						; size = 4
?eq_int_type@?$_Narrow_char_traits@DH@std@@SA_NABH0@Z PROC ; std::_Narrow_char_traits<char,int>::eq_int_type, COMDAT

; 480  :     _NODISCARD static constexpr bool eq_int_type(const int_type& _Left, const int_type& _Right) noexcept {

  00000	55		 push	 ebp
  00001	8b ec		 mov	 ebp, esp
  00003	81 ec c4 00 00
	00		 sub	 esp, 196		; 000000c4H
  00009	53		 push	 ebx
  0000a	56		 push	 esi
  0000b	57		 push	 edi
  0000c	8d 7d fc	 lea	 edi, DWORD PTR [ebp-4]
  0000f	b9 01 00 00 00	 mov	 ecx, 1
  00014	b8 cc cc cc cc	 mov	 eax, -858993460		; ccccccccH
  00019	f3 ab		 rep stosd
  0001b	b9 00 00 00 00	 mov	 ecx, OFFSET __B71DB0E4_xstring
  00020	e8 00 00 00 00	 call	 @__CheckForDebuggerJustMyCode@4

; 481  :         return _Left == _Right;

  00025	8b 45 08	 mov	 eax, DWORD PTR __Left$[ebp]
  00028	8b 4d 0c	 mov	 ecx, DWORD PTR __Right$[ebp]
  0002b	8b 10		 mov	 edx, DWORD PTR [eax]
  0002d	3b 11		 cmp	 edx, DWORD PTR [ecx]
  0002f	75 0c		 jne	 SHORT $LN3@eq_int_typ
  00031	c7 85 3c ff ff
	ff 01 00 00 00	 mov	 DWORD PTR tv65[ebp], 1
  0003b	eb 0a		 jmp	 SHORT $LN4@eq_int_typ
$LN3@eq_int_typ:
  0003d	c7 85 3c ff ff
	ff 00 00 00 00	 mov	 DWORD PTR tv65[ebp], 0
$LN4@eq_int_typ:
  00047	8a 85 3c ff ff
	ff		 mov	 al, BYTE PTR tv65[ebp]

; 482  :     }

  0004d	5f		 pop	 edi
  0004e	5e		 pop	 esi
  0004f	5b		 pop	 ebx
  00050	81 c4 c4 00 00
	00		 add	 esp, 196		; 000000c4H
  00056	3b ec		 cmp	 ebp, esp
  00058	e8 00 00 00 00	 call	 __RTC_CheckEsp
  0005d	8b e5		 mov	 esp, ebp
  0005f	5d		 pop	 ebp
  00060	c3		 ret	 0
?eq_int_type@?$_Narrow_char_traits@DH@std@@SA_NABH0@Z ENDP ; std::_Narrow_char_traits<char,int>::eq_int_type
_TEXT	ENDS
; Function compile flags: /Odtp /RTCsu /ZI
; File C:\Program Files\Microsoft Visual Studio\2022\Community\VC\Tools\MSVC\14.34.31933\include\xstring
;	COMDAT ?length@?$_Narrow_char_traits@DH@std@@SAIQBD@Z
_TEXT	SEGMENT
__First$ = 8						; size = 4
?length@?$_Narrow_char_traits@DH@std@@SAIQBD@Z PROC	; std::_Narrow_char_traits<char,int>::length, COMDAT

; 402  :     _NODISCARD static _CONSTEXPR17 size_t length(_In_z_ const _Elem* const _First) noexcept /* strengthened */ {

  00000	55		 push	 ebp
  00001	8b ec		 mov	 ebp, esp
  00003	81 ec c0 00 00
	00		 sub	 esp, 192		; 000000c0H
  00009	53		 push	 ebx
  0000a	56		 push	 esi
  0000b	57		 push	 edi
  0000c	8b fd		 mov	 edi, ebp
  0000e	33 c9		 xor	 ecx, ecx
  00010	b8 cc cc cc cc	 mov	 eax, -858993460		; ccccccccH
  00015	f3 ab		 rep stosd
  00017	b9 00 00 00 00	 mov	 ecx, OFFSET __B71DB0E4_xstring
  0001c	e8 00 00 00 00	 call	 @__CheckForDebuggerJustMyCode@4

; 403  :         // find length of null-terminated string
; 404  : #if _HAS_CXX17
; 405  : #ifdef __cpp_char8_t
; 406  :         if constexpr (is_same_v<_Elem, char8_t>) {
; 407  : #if _HAS_U8_INTRINSICS
; 408  :             return __builtin_u8strlen(_First);
; 409  : #else // ^^^ use u8 intrinsics / no u8 intrinsics vvv
; 410  :             return _Primary_char_traits::length(_First);
; 411  : #endif // _HAS_U8_INTRINSICS
; 412  :         } else
; 413  : #endif // __cpp_char8_t
; 414  :         {
; 415  :             return __builtin_strlen(_First);
; 416  :         }
; 417  : #else // _HAS_CXX17
; 418  :         return _CSTD strlen(reinterpret_cast<const char*>(_First));

  00021	8b 45 08	 mov	 eax, DWORD PTR __First$[ebp]
  00024	50		 push	 eax
  00025	e8 00 00 00 00	 call	 _strlen
  0002a	83 c4 04	 add	 esp, 4

; 419  : #endif // _HAS_CXX17
; 420  :     }

  0002d	5f		 pop	 edi
  0002e	5e		 pop	 esi
  0002f	5b		 pop	 ebx
  00030	81 c4 c0 00 00
	00		 add	 esp, 192		; 000000c0H
  00036	3b ec		 cmp	 ebp, esp
  00038	e8 00 00 00 00	 call	 __RTC_CheckEsp
  0003d	8b e5		 mov	 esp, ebp
  0003f	5d		 pop	 ebp
  00040	c3		 ret	 0
?length@?$_Narrow_char_traits@DH@std@@SAIQBD@Z ENDP	; std::_Narrow_char_traits<char,int>::length
_TEXT	ENDS
; Function compile flags: /Odtp /RTCsu /ZI
; File D:\User\Desktop\Everythin' for BSTU\Narkevich\All laboratory works\2-ой семестр\решения лбр\LBR_03\LBR_01\Incorrect_Data_yes_or_no.cpp
;	COMDAT ?__empty_global_delete@@YAXPAXI@Z
_TEXT	SEGMENT
___formal$ = 8						; size = 4
___formal$ = 12						; size = 4
?__empty_global_delete@@YAXPAXI@Z PROC			; __empty_global_delete, COMDAT

  00000	55		 push	 ebp
  00001	8b ec		 mov	 ebp, esp
  00003	81 ec c0 00 00
	00		 sub	 esp, 192		; 000000c0H
  00009	53		 push	 ebx
  0000a	56		 push	 esi
  0000b	57		 push	 edi
  0000c	8b fd		 mov	 edi, ebp
  0000e	33 c9		 xor	 ecx, ecx
  00010	b8 cc cc cc cc	 mov	 eax, -858993460		; ccccccccH
  00015	f3 ab		 rep stosd
  00017	b9 00 00 00 00	 mov	 ecx, OFFSET __2ADBDB11_Incorrect_Data_yes_or_no@cpp
  0001c	e8 00 00 00 00	 call	 @__CheckForDebuggerJustMyCode@4
  00021	5f		 pop	 edi
  00022	5e		 pop	 esi
  00023	5b		 pop	 ebx
  00024	81 c4 c0 00 00
	00		 add	 esp, 192		; 000000c0H
  0002a	3b ec		 cmp	 ebp, esp
  0002c	e8 00 00 00 00	 call	 __RTC_CheckEsp
  00031	8b e5		 mov	 esp, ebp
  00033	5d		 pop	 ebp
  00034	c3		 ret	 0
?__empty_global_delete@@YAXPAXI@Z ENDP			; __empty_global_delete
_TEXT	ENDS
; Function compile flags: /Odtp /RTCsu /ZI
; File D:\User\Desktop\Everythin' for BSTU\Narkevich\All laboratory works\2-ой семестр\решения лбр\LBR_03\LBR_01\Incorrect_Data_yes_or_no.cpp
;	COMDAT ?__empty_global_delete@@YAXPAX@Z
_TEXT	SEGMENT
___formal$ = 8						; size = 4
?__empty_global_delete@@YAXPAX@Z PROC			; __empty_global_delete, COMDAT

  00000	55		 push	 ebp
  00001	8b ec		 mov	 ebp, esp
  00003	81 ec c0 00 00
	00		 sub	 esp, 192		; 000000c0H
  00009	53		 push	 ebx
  0000a	56		 push	 esi
  0000b	57		 push	 edi
  0000c	8b fd		 mov	 edi, ebp
  0000e	33 c9		 xor	 ecx, ecx
  00010	b8 cc cc cc cc	 mov	 eax, -858993460		; ccccccccH
  00015	f3 ab		 rep stosd
  00017	b9 00 00 00 00	 mov	 ecx, OFFSET __2ADBDB11_Incorrect_Data_yes_or_no@cpp
  0001c	e8 00 00 00 00	 call	 @__CheckForDebuggerJustMyCode@4
  00021	5f		 pop	 edi
  00022	5e		 pop	 esi
  00023	5b		 pop	 ebx
  00024	81 c4 c0 00 00
	00		 add	 esp, 192		; 000000c0H
  0002a	3b ec		 cmp	 ebp, esp
  0002c	e8 00 00 00 00	 call	 __RTC_CheckEsp
  00031	8b e5		 mov	 esp, ebp
  00033	5d		 pop	 ebp
  00034	c3		 ret	 0
?__empty_global_delete@@YAXPAX@Z ENDP			; __empty_global_delete
_TEXT	ENDS
END
