; Listing generated by Microsoft (R) Optimizing Compiler Version 19.34.31937.0 

	TITLE	D:\User\Desktop\Everythin' for BSTU\Narkevich\1-ый курс 2-ой семестр\Lab's\решения лбр\LBR_01\LBR_01\Debug\NumberOfDay.obj
	.686P
	.XMM
	include listing.inc
	.model	flat

INCLUDELIB MSVCRTD
INCLUDELIB OLDNAMES

PUBLIC	?Month@@3PAHA					; Month
msvcjmc	SEGMENT
__CD417A16_concurrencysal@h DB 01H
__18C11F8D_sal@h DB 01H
__BD42D05E_vadefs@h DB 01H
__2DC9DF70_vcruntime@h DB 01H
__C9149A6D_xkeycheck@h DB 01H
__94F3B4AE_yvals_core@h DB 01H
__7B399007_limits@h DB 01H
__1AB9F2C2_climits DB 01H
__04C75F1C_corecrt@h DB 01H
__E81B5085_vcruntime_new@h DB 01H
__130137D5_vcruntime_new_debug@h DB 01H
__8CF369C8_crtdbg@h DB 01H
__95C621C9_crtdefs@h DB 01H
__FEED0ABF_use_ansi@h DB 01H
__2816668F_yvals@h DB 01H
__92857972_corecrt_math@h DB 01H
__A29DED85_math@h DB 01H
__494656A0_corecrt_malloc@h DB 01H
__0C5B3DCC_stddef@h DB 01H
__F1F53BCE_corecrt_search@h DB 01H
__DD5AA43A_corecrt_wstdlib@h DB 01H
__71F46169_stdlib@h DB 01H
__9E56D030_cstdlib DB 01H
__05E338F6_xtr1common DB 01H
__99FA516B_intrin0@inl@h DB 01H
__8CEB98C2_intrin0@h DB 01H
__7A7B113A_cmath DB 01H
__C44F8F6B_corecrt_stdio_config@h DB 01H
__A7F89B2B_corecrt_wstdio@h DB 01H
__B5C48800_stdio@h DB 01H
__A651C215_cstdio DB 01H
__15E49872_errno@h DB 01H
__6BB4896E_vcruntime_string@h DB 01H
__184F7456_corecrt_memcpy_s@h DB 01H
__82377222_corecrt_memory@h DB 01H
__5B29309E_corecrt_wstring@h DB 01H
__F787F5CD_string@h DB 01H
__D2C478D0_cstring DB 01H
__E387ED1C_corecrt_wconio@h DB 01H
__78D0C915_corecrt_wctype@h DB 01H
__02A4DD57_corecrt_wdirect@h DB 01H
__A056EFF3_corecrt_share@h DB 01H
__91FC0EDF_corecrt_wio@h DB 01H
__6619318A_corecrt_wprocess@h DB 01H
__18070508_corecrt_wtime@h DB 01H
__3D2AFB26_types@h DB 01H
__72103B05_stat@h DB 01H
__4BE26BFD_wchar@h DB 01H
__3CDA1446_cwchar DB 01H
__3B9D0A9D_cstddef DB 01H
__D7870C25_initializer_list DB 01H
__5E44C2A9_xstddef DB 01H
__7F1A9170_iosfwd DB 01H
__C54FBE38_stdint@h DB 01H
__2308314D_cstdint DB 01H
__87BD5CA6_type_traits DB 01H
__A95B55BB_utility DB 01H
__EE76B579___msvc_iter_core@hpp DB 01H
__A997C6C5_xutility DB 01H
__B83B7185_iterator DB 01H
__83BF90D8_share@h DB 01H
__9D384591___msvc_system_error_abi@hpp DB 01H
__3B70B6EE_cerrno DB 01H
__E5D9469F_malloc@h DB 01H
__C78E68C1_corecrt_terminate@h DB 01H
__510B0051_eh@h DB 01H
__1BEF3287_vcruntime_exception@h DB 01H
__5D994F5F_exception DB 01H
__CDB0EEF0_float@h DB 01H
__D5150992_cfloat DB 01H
__B83F831D_isa_availability@h DB 01H
__B3F344F6_limits DB 01H
__7E4C13A5_new DB 01H
__5795C389_xatomic@h DB 01H
__C3CE3678_xmemory DB 01H
__B71DB0E4_xstring DB 01H
__D4D77502_stdexcept DB 01H
__D76B6AFE_xcall_once@h DB 01H
__80837380_xerrc@h DB 01H
__93FD7E51_time@h DB 01H
__BCC88D32_ctime DB 01H
__1F532584_xtimec@h DB 01H
__9FA33D0C_xthreads@h DB 01H
__D8C61834_atomic DB 01H
__683678DE_system_error DB 01H
__FA9853E6_vcruntime_typeinfo@h DB 01H
__D94835DC_typeinfo DB 01H
__0F5D4878_memory DB 01H
__23181F77_xfacet DB 01H
__274043E2___msvc_xlocinfo_types@hpp DB 01H
__6AECDA3E_ctype@h DB 01H
__A99A25B2_cctype DB 01H
__66B29864_locale@h DB 01H
__0DFA0CE1_clocale DB 01H
__C6C1D614_xlocinfo DB 01H
__6823C4D5_xlocale DB 01H
__FF24A107_xiosbase DB 01H
__D677CDBE_streambuf DB 01H
__F6A4A2C2_xlocnum DB 01H
__868129B3_ios DB 01H
__7B331E11_ostream DB 01H
__18E32B2B_istream DB 01H
__CBEEBCDA_iostream DB 01H
__456CA321_Time@h DB 01H
__A346771B_LeapOrNot@h DB 01H
__83299C4B_NumberOfDay@h DB 01H
__EE9DF070_stdafx@h DB 01H
__995B2DA3_NumberOfDay@cpp DB 01H
msvcjmc	ENDS
_DATA	SEGMENT
?Month@@3PAHA DD 01fH					; Month
	DD	01cH
	DD	01fH
	DD	01eH
	DD	01fH
	DD	01eH
	DD	01fH
	DD	01fH
	DD	01eH
	DD	01fH
	DD	01eH
	DD	01fH
_DATA	ENDS
PUBLIC	?__empty_global_delete@@YAXPAX@Z		; __empty_global_delete
PUBLIC	?__empty_global_delete@@YAXPAXI@Z		; __empty_global_delete
PUBLIC	?NumberOfDay@@YAHHHHH@Z				; NumberOfDay
PUBLIC	__JustMyCode_Default
PUBLIC	??_C@_05PDJBBECF@pause@				; `string'
EXTRN	__imp__system:PROC
EXTRN	@__CheckForDebuggerJustMyCode@4:PROC
EXTRN	__RTC_CheckEsp:PROC
EXTRN	__RTC_InitBase:PROC
EXTRN	__RTC_Shutdown:PROC
;	COMDAT rtc$TMZ
rtc$TMZ	SEGMENT
__RTC_Shutdown.rtc$TMZ DD FLAT:__RTC_Shutdown
rtc$TMZ	ENDS
;	COMDAT rtc$IMZ
rtc$IMZ	SEGMENT
__RTC_InitBase.rtc$IMZ DD FLAT:__RTC_InitBase
rtc$IMZ	ENDS
;	COMDAT ??_C@_05PDJBBECF@pause@
CONST	SEGMENT
??_C@_05PDJBBECF@pause@ DB 'pause', 00H			; `string'
CONST	ENDS
; Function compile flags: /Odt
;	COMDAT __JustMyCode_Default
_TEXT	SEGMENT
__JustMyCode_Default PROC				; COMDAT
  00000	55		 push	 ebp
  00001	8b ec		 mov	 ebp, esp
  00003	5d		 pop	 ebp
  00004	c3		 ret	 0
__JustMyCode_Default ENDP
_TEXT	ENDS
; Function compile flags: /Odtp /RTCsu /ZI
; File D:\User\Desktop\Everythin' for BSTU\Narkevich\1-ый курс 2-ой семестр\Lab's\решения лбр\LBR_01\LBR_01\NumberOfDay.cpp
;	COMDAT ?NumberOfDay@@YAHHHHH@Z
_TEXT	SEGMENT
_i$1 = -20						; size = 4
_numberofday$ = -8					; size = 4
_month$ = 8						; size = 4
_days$ = 12						; size = 4
_day$ = 16						; size = 4
_year$ = 20						; size = 4
?NumberOfDay@@YAHHHHH@Z PROC				; NumberOfDay, COMDAT

; 3    : int NumberOfDay(int month,int days, int day, int year) {

  00000	55		 push	 ebp
  00001	8b ec		 mov	 ebp, esp
  00003	81 ec d8 00 00
	00		 sub	 esp, 216		; 000000d8H
  00009	53		 push	 ebx
  0000a	56		 push	 esi
  0000b	57		 push	 edi
  0000c	8d 7d e8	 lea	 edi, DWORD PTR [ebp-24]
  0000f	b9 06 00 00 00	 mov	 ecx, 6
  00014	b8 cc cc cc cc	 mov	 eax, -858993460		; ccccccccH
  00019	f3 ab		 rep stosd
  0001b	b9 00 00 00 00	 mov	 ecx, OFFSET __995B2DA3_NumberOfDay@cpp
  00020	e8 00 00 00 00	 call	 @__CheckForDebuggerJustMyCode@4

; 4    : 	int numberofday = 0;

  00025	c7 45 f8 00 00
	00 00		 mov	 DWORD PTR _numberofday$[ebp], 0

; 5    : 	if (year % 4 == 0) {

  0002c	8b 45 14	 mov	 eax, DWORD PTR _year$[ebp]
  0002f	25 03 00 00 80	 and	 eax, -2147483645	; 80000003H
  00034	79 05		 jns	 SHORT $LN7@NumberOfDa
  00036	48		 dec	 eax
  00037	83 c8 fc	 or	 eax, -4			; fffffffcH
  0003a	40		 inc	 eax
$LN7@NumberOfDa:
  0003b	85 c0		 test	 eax, eax
  0003d	75 12		 jne	 SHORT $LN5@NumberOfDa

; 6    : 		Month[1] = 29;

  0003f	b8 04 00 00 00	 mov	 eax, 4
  00044	c1 e0 00	 shl	 eax, 0
  00047	c7 80 00 00 00
	00 1d 00 00 00	 mov	 DWORD PTR ?Month@@3PAHA[eax], 29 ; 0000001dH
$LN5@NumberOfDa:

; 7    : 	}
; 8    : 	
; 9    : 	for (int i = month - 2; i >= 0; i--)

  00051	8b 45 08	 mov	 eax, DWORD PTR _month$[ebp]
  00054	83 e8 02	 sub	 eax, 2
  00057	89 45 ec	 mov	 DWORD PTR _i$1[ebp], eax
  0005a	eb 09		 jmp	 SHORT $LN4@NumberOfDa
$LN2@NumberOfDa:
  0005c	8b 45 ec	 mov	 eax, DWORD PTR _i$1[ebp]
  0005f	83 e8 01	 sub	 eax, 1
  00062	89 45 ec	 mov	 DWORD PTR _i$1[ebp], eax
$LN4@NumberOfDa:
  00065	83 7d ec 00	 cmp	 DWORD PTR _i$1[ebp], 0
  00069	7c 12		 jl	 SHORT $LN3@NumberOfDa

; 10   : 	{
; 11   : 		days += Month[i];

  0006b	8b 45 ec	 mov	 eax, DWORD PTR _i$1[ebp]
  0006e	8b 4d 0c	 mov	 ecx, DWORD PTR _days$[ebp]
  00071	03 0c 85 00 00
	00 00		 add	 ecx, DWORD PTR ?Month@@3PAHA[eax*4]
  00078	89 4d 0c	 mov	 DWORD PTR _days$[ebp], ecx

; 12   : 	}

  0007b	eb df		 jmp	 SHORT $LN2@NumberOfDa
$LN3@NumberOfDa:

; 13   : 	numberofday = day + days;

  0007d	8b 45 10	 mov	 eax, DWORD PTR _day$[ebp]
  00080	03 45 0c	 add	 eax, DWORD PTR _days$[ebp]
  00083	89 45 f8	 mov	 DWORD PTR _numberofday$[ebp], eax

; 14   : 	return numberofday;

  00086	8b 45 f8	 mov	 eax, DWORD PTR _numberofday$[ebp]
  00089	eb 17		 jmp	 SHORT $LN1@NumberOfDa

; 15   : 	system("pause");

  0008b	8b f4		 mov	 esi, esp
  0008d	68 00 00 00 00	 push	 OFFSET ??_C@_05PDJBBECF@pause@
  00092	ff 15 00 00 00
	00		 call	 DWORD PTR __imp__system
  00098	83 c4 04	 add	 esp, 4
  0009b	3b f4		 cmp	 esi, esp
  0009d	e8 00 00 00 00	 call	 __RTC_CheckEsp
$LN1@NumberOfDa:

; 16   : }

  000a2	5f		 pop	 edi
  000a3	5e		 pop	 esi
  000a4	5b		 pop	 ebx
  000a5	81 c4 d8 00 00
	00		 add	 esp, 216		; 000000d8H
  000ab	3b ec		 cmp	 ebp, esp
  000ad	e8 00 00 00 00	 call	 __RTC_CheckEsp
  000b2	8b e5		 mov	 esp, ebp
  000b4	5d		 pop	 ebp
  000b5	c3		 ret	 0
?NumberOfDay@@YAHHHHH@Z ENDP				; NumberOfDay
_TEXT	ENDS
; Function compile flags: /Odtp /RTCsu /ZI
; File D:\User\Desktop\Everythin' for BSTU\Narkevich\1-ый курс 2-ой семестр\Lab's\решения лбр\LBR_01\LBR_01\NumberOfDay.cpp
;	COMDAT ?__empty_global_delete@@YAXPAXI@Z
_TEXT	SEGMENT
___formal$ = 8						; size = 4
___formal$ = 12						; size = 4
?__empty_global_delete@@YAXPAXI@Z PROC			; __empty_global_delete, COMDAT

  00000	55		 push	 ebp
  00001	8b ec		 mov	 ebp, esp
  00003	81 ec c0 00 00
	00		 sub	 esp, 192		; 000000c0H
  00009	53		 push	 ebx
  0000a	56		 push	 esi
  0000b	57		 push	 edi
  0000c	8b fd		 mov	 edi, ebp
  0000e	33 c9		 xor	 ecx, ecx
  00010	b8 cc cc cc cc	 mov	 eax, -858993460		; ccccccccH
  00015	f3 ab		 rep stosd
  00017	b9 00 00 00 00	 mov	 ecx, OFFSET __995B2DA3_NumberOfDay@cpp
  0001c	e8 00 00 00 00	 call	 @__CheckForDebuggerJustMyCode@4
  00021	5f		 pop	 edi
  00022	5e		 pop	 esi
  00023	5b		 pop	 ebx
  00024	81 c4 c0 00 00
	00		 add	 esp, 192		; 000000c0H
  0002a	3b ec		 cmp	 ebp, esp
  0002c	e8 00 00 00 00	 call	 __RTC_CheckEsp
  00031	8b e5		 mov	 esp, ebp
  00033	5d		 pop	 ebp
  00034	c3		 ret	 0
?__empty_global_delete@@YAXPAXI@Z ENDP			; __empty_global_delete
_TEXT	ENDS
; Function compile flags: /Odtp /RTCsu /ZI
; File D:\User\Desktop\Everythin' for BSTU\Narkevich\1-ый курс 2-ой семестр\Lab's\решения лбр\LBR_01\LBR_01\NumberOfDay.cpp
;	COMDAT ?__empty_global_delete@@YAXPAX@Z
_TEXT	SEGMENT
___formal$ = 8						; size = 4
?__empty_global_delete@@YAXPAX@Z PROC			; __empty_global_delete, COMDAT

  00000	55		 push	 ebp
  00001	8b ec		 mov	 ebp, esp
  00003	81 ec c0 00 00
	00		 sub	 esp, 192		; 000000c0H
  00009	53		 push	 ebx
  0000a	56		 push	 esi
  0000b	57		 push	 edi
  0000c	8b fd		 mov	 edi, ebp
  0000e	33 c9		 xor	 ecx, ecx
  00010	b8 cc cc cc cc	 mov	 eax, -858993460		; ccccccccH
  00015	f3 ab		 rep stosd
  00017	b9 00 00 00 00	 mov	 ecx, OFFSET __995B2DA3_NumberOfDay@cpp
  0001c	e8 00 00 00 00	 call	 @__CheckForDebuggerJustMyCode@4
  00021	5f		 pop	 edi
  00022	5e		 pop	 esi
  00023	5b		 pop	 ebx
  00024	81 c4 c0 00 00
	00		 add	 esp, 192		; 000000c0H
  0002a	3b ec		 cmp	 ebp, esp
  0002c	e8 00 00 00 00	 call	 __RTC_CheckEsp
  00031	8b e5		 mov	 esp, ebp
  00033	5d		 pop	 ebp
  00034	c3		 ret	 0
?__empty_global_delete@@YAXPAX@Z ENDP			; __empty_global_delete
_TEXT	ENDS
END
